(iqlearn
QLearn
p0
(dp1
S'q'
p2
(dp3
(S'1610211'
p4
I1
tp5
I1
s(S'26119'
p6
I1
tp7
I1
s(S'46124'
p8
I0
tp9
I5
s(S'560110'
p10
I1
tp11
I1
s(S'066510'
p12
I1
tp13
I1
s(S'57433'
p14
I1
tp15
I1
s(S'571110'
p16
I0
tp17
I5
s(S'36114'
p18
I1
tp19
I1
s(S'21182'
p20
I2
tp21
F1.0
s(S'46242'
p22
I1
tp23
F1.0
s(S'18084'
p24
I2
tp25
I1
s(S'65692'
p26
I2
tp27
I1
s(S'16183'
p28
I1
tp29
I1
s(S'16834'
p30
I1
tp31
I1
s(S'04777'
p32
I0
tp33
I5
s(S'67572'
p34
I1
tp35
I1
s(S'81739'
p36
I2
tp37
F1.0
s(S'12173'
p38
I1
tp39
I1
s(S'20174'
p40
I0
tp41
I5
s(S'27232'
p42
I0
tp43
I5
s(S'17082'
p44
I1
tp45
I1
s(S'305103'
p46
I1
tp47
F1.0
s(S'01754'
p48
I2
tp49
I1
s(S'570110'
p50
I2
tp51
I1
s(S'21282'
p52
I0
tp53
I5
s(S'37124'
p54
I0
tp55
I5
s(S'33228'
p56
I1
tp57
I1
s(S'259411'
p58
I0
tp59
I5
s(S'65292'
p60
I1
tp61
I1
s(S'33728'
p62
I0
tp63
I5
s(S'560010'
p64
I2
tp65
F1.1600000000000001
s(S'57125'
p66
I0
tp67
I5
s(S'67562'
p68
I0
tp69
I5
s(S'68552'
p70
I2
tp71
I1
s(S'610292'
p72
I1
tp73
I1
s(S'371110'
p74
I1
tp75
F1.0
s(S'21072'
p76
I1
tp77
I1
s(S'21178'
p78
I2
tp79
I1
s(S'41274'
p80
I0
tp81
I5
s(S'14172'
p82
I1
tp83
I1
s(S'40663'
p84
I1
tp85
I1
s(S'510010'
p86
I0
tp87
I5
s(S'56018'
p88
I0
tp89
I5
s(S'00754'
p90
I2
tp91
I1
s(S'00693'
p92
I1
tp93
F1.1280000000000001
s(S'550010'
p94
I2
tp95
F1.0
s(S'12182'
p96
I2
tp97
I1
s(S'81939'
p98
I0
tp99
I5
s(S'36009'
p100
I1
tp101
F1.288
s(S'21172'
p102
I1
tp103
I1
s(S'66442'
p104
I0
tp105
I5
s(S'27233'
p106
I0
tp107
I5
s(S'40693'
p108
I0
tp109
I5
s(S'540010'
p110
I0
tp111
F-36.0
s(S'56125'
p112
I2
tp113
F1.0
s(S'11178'
p114
I1
tp115
I1
s(S'370010'
p116
I0
tp117
I5
s(S'610692'
p118
I0
tp119
I5
s(S'11282'
p120
I2
tp121
I1
s(S'02725'
p122
I1
tp123
I1
s(S'04173'
p124
I0
tp125
I5
s(S'30483'
p126
I0
tp127
I5
s(S'11173'
p128
I0
tp129
I5
s(S'18085'
p130
I1
tp131
I1
s(S'692102'
p132
I2
tp133
F1.0
s(S'66292'
p134
I1
tp135
I1
s(S'01643'
p136
I0
tp137
I5
s(S'904511'
p138
I0
tp139
I5
s(S'51428'
p140
I1
tp141
I1
s(S'82947'
p142
I1
tp143
I1
s(S'32328'
p144
I1
tp145
I1
s(S'05173'
p146
I1
tp147
F1.0
s(S'56252'
p148
I1
tp149
I1
s(S'16837'
p150
I0
tp151
I5
s(S'906611'
p152
I1
tp153
F1.1280000000000001
s(S'12174'
p154
I0
tp155
I5
s(S'21173'
p156
I0
tp157
I5
s(S'370110'
p158
I2
tp159
F1.0
s(S'169210'
p160
I1
tp161
I1
s(S'81736'
p162
I0
tp163
I5
s(S'16172'
p164
I0
tp165
I5
s(S'01724'
p166
I1
tp167
F1.0
s(S'21736'
p168
I0
tp169
I5
s(S'22138'
p170
I1
tp171
F1.1280000000000001
s(S'91839'
p172
I1
tp173
I1
s(S'12183'
p174
I1
tp175
I1
s(S'662103'
p176
I0
tp177
I5
s(S'65272'
p178
I2
tp179
I1
s(S'20172'
p180
I1
tp181
F1.0
s(S'682102'
p182
I0
tp183
I5
s(S'[2, 2, 1, 3, 8]False'
p184
I1
tp185
I1
s(S'47242'
p186
I2
tp187
I1
s(S'18183'
p188
I1
tp189
I1
s(S'17073'
p190
I0
tp191
I5
s(S'67433'
p192
I2
tp193
F1.0
s(S'91828'
p194
I0
tp195
F5.0
ssS'epsilon'
p196
F0.8987400000000001
sS'actions'
p197
(lp198
I0
aI1
aI2
asS'gamma'
p199
F0.8
sS'alpha'
p200
F0.2
sb.