(iqlearn
QLearn
p0
(dp1
S'q'
p2
(dp3
(S'13000'
p4
I0
tp5
F5.0
s(S'12100'
p6
I1
tp7
F1.0
s(S'51000'
p8
I0
tp9
I-200
s(S'04210'
p10
I0
tp11
F7.4104550399999995
s(S'13100'
p12
I2
tp13
F1.288
s(S'23000'
p14
I1
tp15
F1.1600000000000001
s(S'11100'
p16
I1
tp17
F1.1600000000000001
s(S'33000'
p18
I2
tp19
F1.0
s(S'[0, 4, 1, 1, 0]False'
p20
I2
tp21
I1
s(S'12110'
p22
I2
tp23
I1
s(S'14100'
p24
I1
tp25
F1.0
s(S'24100'
p26
I2
tp27
I1
ssS'epsilon'
p28
F0.8987400000000001
sS'actions'
p29
(lp30
I0
aI1
aI2
asS'gamma'
p31
F0.8
sS'alpha'
p32
F0.2
sb.