(iqlearn
QLearn
p0
(dp1
S'q'
p2
(dp3
(S'04100'
p4
I1
tp5
I1
s(S'31001'
p6
I2
tp7
F1.0
s(S'11100'
p8
I1
tp9
F1.0
s(S'11110'
p10
I1
tp11
I1
s(S'10210'
p12
I0
tp13
F13.633292768676538
s(S'[1, 0, 2, 1, 0]False'
p14
I1
tp15
I1
s(S'41100'
p16
I1
tp17
F1.0
s(S'03100'
p18
I1
tp19
I1
s(S'02100'
p20
I1
tp21
F1.3136
s(S'41000'
p22
I0
tp23
F-35.36000000000001
s(S'01100'
p24
I2
tp25
F1.1280000000000001
ssS'epsilon'
p26
F0.8987400000000001
sS'actions'
p27
(lp28
I0
aI1
aI2
asS'gamma'
p29
F0.8
sS'alpha'
p30
F0.2
sb.