(iqlearn
QLearn
p0
(dp1
S'q'
p2
(dp3
(S'30500'
p4
I0
tp5
F-43.77276699171165
s(S'13211'
p6
I2
tp7
F-38.407332704548615
s(S'30021'
p8
I2
tp9
F-82.89171940316095
s(S'20050'
p10
I0
tp11
F-33.24441572560135
s(S'52100'
p12
I0
tp13
F-64.05040500282874
s(S'13122'
p14
I2
tp15
I-200
s(S'51101'
p16
I2
tp17
I-200
s(S'35000'
p18
I1
tp19
F-9.604770445480643
s(S'40001'
p20
I1
tp21
F-54.784249927074384
s(S'11123'
p22
I0
tp23
F10.369264055429547
s(S'33002'
p24
I0
tp25
I5
s(S'04111'
p26
I2
tp27
F3.844276385645226
s(S'00114'
p28
I0
tp29
F-62.47624375461737
s(S'51113'
p30
I1
tp31
F-16.71189522430072
s(S'31003'
p32
I2
tp33
F-96.309662723221
s(S'51211'
p34
I0
tp35
F2.9631145814394717
s(S'10010'
p36
I0
tp37
F-48.27604997734101
s(S'10044'
p38
I2
tp39
F-8.065224856124395
s(S'33101'
p40
I2
tp41
I1
s(S'02111'
p42
I2
tp43
F-7.159629119106825
s(S'00005'
p44
I0
tp45
F-176.70408316050666
s(S'01200'
p46
I1
tp47
F-4.713171949375692
s(S'01000'
p48
I0
tp49
F-152.06031072053528
s(S'21041'
p50
I0
tp51
F-40.93874574485787
s(S'00423'
p52
I0
tp53
F13.760611730487293
s(S'41610'
p54
I1
tp55
F3.692225737835629
s(S'30006'
p56
I2
tp57
F-105.71840653187179
s(S'10036'
p58
I1
tp59
F-38.98186269542468
s(S'11241'
p60
I2
tp61
F-8.48608080979328
s(S'03222'
p62
I1
tp63
F1.6589075919564962
s(S'10004'
p64
I0
tp65
F-157.4654283592199
s(S'00200'
p66
I0
tp67
F-39.52994438056416
s(S'14301'
p68
I2
tp69
F-3.8979183282674184
s(S'01300'
p70
I1
tp71
F5.143444654882071
s(S'30610'
p72
I1
tp73
F2.3471986086404915
s(S'53001'
p74
I1
tp75
F-16.740128857493872
s(S'13114'
p76
I0
tp77
F7.367845772951963
s(S'10123'
p78
I2
tp79
F5.28195127845845
s(S'51120'
p80
I0
tp81
F10.934392559095176
s(S'32400'
p82
I1
tp83
F-31.41932965668578
s(S'40011'
p84
I1
tp85
F-63.697065881721436
s(S'12114'
p86
I1
tp87
F-5.500510463942766
s(S'13102'
p88
I1
tp89
F-20.253576570221327
s(S'52200'
p90
I0
tp91
F7.026430034792879
s(S'63000'
p92
I0
tp93
I-200
s(S'21421'
p94
I1
tp95
F-38.400000000000006
s(S'10041'
p96
I2
tp97
F-84.0310421414286
s(S'20002'
p98
I1
tp99
F-16.138075528254546
s(S'30411'
p100
I1
tp101
F5.646403465564503
s(S'31220'
p102
I1
tp103
F6.029560707000124
s(S'21112'
p104
I2
tp105
F-145.47119286242986
s(S'20031'
p106
I0
tp107
F-98.58765248644139
s(S'12000'
p108
I0
tp109
F-44.68880075828385
s(S'13002'
p110
I1
tp111
F-56.46369009038337
s(S'00153'
p112
I2
tp113
F-0.2036905266269713
s(S'11012'
p114
I2
tp115
F-29.04129724888908
s(S'11142'
p116
I0
tp117
F-1.0890507227761024
s(S'12010'
p118
I1
tp119
F-37.213832993383164
s(S'60101'
p120
I1
tp121
F-2.8681025335571877
s(S'03311'
p122
I1
tp123
F5.1901430936658155
s(S'00311'
p124
I0
tp125
F12.280375799805078
s(S'12300'
p126
I1
tp127
F-69.12518398025085
s(S'43011'
p128
I1
tp129
F-7.480609353141782
s(S'21241'
p130
I1
tp131
F0.9448367171862233
s(S'12020'
p132
I1
tp133
F2.8998672915130284
s(S'30210'
p134
I0
tp135
F10.377243360800973
s(S'41130'
p136
I2
tp137
F5.52052269211347
s(S'00132'
p138
I0
tp139
F-6.693380195332834
s(S'41112'
p140
I0
tp141
F-13.57773161608959
s(S'22501'
p142
I1
tp143
F5.624636011967638
s(S'25010'
p144
I2
tp145
F-21.79280730246489
s(S'10036'
p146
I0
tp147
F-34.43200000000001
s(S'16000'
p148
I0
tp149
F-124.97631089691637
s(S'35011'
p150
I1
tp151
F-0.704733606124329
s(S'30001'
p152
I0
tp153
F-131.18077224896396
s(S'01230'
p154
I0
tp155
F11.15676560526736
s(S'12123'
p156
I0
tp157
F1.5931553250641919
s(S'21114'
p158
I1
tp159
I-200
s(S'30221'
p160
I0
tp161
F-31.643135584874116
s(S'00016'
p162
I2
tp163
F-34.27923322293903
s(S'32031'
p164
I0
tp165
F-35.64461164983352
s(S'00522'
p166
I1
tp167
F6.740194908096969
s(S'22004'
p168
I1
tp169
F-1.9752285466841628
s(S'11140'
p170
I2
tp171
F-35.0784977743093
s(S'21104'
p172
I0
tp173
I-200
s(S'01231'
p174
I2
tp175
F-0.3822814496813054
s(S'24012'
p176
I2
tp177
I1
s(S'13200'
p178
I2
tp179
I-200
s(S'30032'
p180
I2
tp181
I1
s(S'10141'
p182
I0
tp183
F-29.63036908453338
s(S'10311'
p184
I1
tp185
F-34.99250084417949
s(S'01113'
p186
I1
tp187
F4.460356098228093
s(S'22111'
p188
I0
tp189
F-33.00945928224195
s(S'14103'
p190
I1
tp191
F-15.917452109715715
s(S'10002'
p192
I0
tp193
F-118.10378828231475
s(S'13022'
p194
I2
tp195
F-0.4314661188797231
s(S'13040'
p196
I0
tp197
F-43.52686170078239
s(S'12213'
p198
I1
tp199
I1
s(S'11222'
p200
I2
tp201
F6.9962226557837
s(S'10512'
p202
I2
tp203
F5.7438862877684596
s(S'24001'
p204
I2
tp205
F-53.462446375293226
s(S'01431'
p206
I0
tp207
F11.089133388871629
s(S'60001'
p208
I1
tp209
F-60.72927288688824
s(S'23000'
p210
I0
tp211
F-161.53445262926988
s(S'01100'
p212
I1
tp213
F-1.7470062251388587
s(S'00321'
p214
I1
tp215
F10.532349776341247
s(S'10050'
p216
I0
tp217
F-26.9630479687479
s(S'00112'
p218
I1
tp219
F-33.55943644150264
s(S'12221'
p220
I0
tp221
F-35.2676882339677
s(S'14210'
p222
I0
tp223
F-29.09027876718715
s(S'51115'
p224
I0
tp225
F-0.25098470177621124
s(S'00042'
p226
I2
tp227
F-68.75842971628079
s(S'60201'
p228
I2
tp229
F-0.5788083798618082
s(S'10500'
p230
I1
tp231
F-37.433574612526584
s(S'00603'
p232
I1
tp233
I1
s(S'10106'
p234
I2
tp235
I1
s(S'22510'
p236
I1
tp237
F2.10317593386708
s(S'02105'
p238
I2
tp239
F4.142423424772264
s(S'02060'
p240
I2
tp241
F3.8013228695234065
s(S'13001'
p242
I2
tp243
F-38.42416951202998
s(S'11201'
p244
I2
tp245
F1.9517813418473557
s(S'61003'
p246
I2
tp247
F-19.855718504910485
s(S'00322'
p248
I0
tp249
F13.959961716308058
s(S'00011'
p250
I0
tp251
F-58.56143139834621
s(S'31021'
p252
I1
tp253
F-43.6645767122251
s(S'63100'
p254
I1
tp255
F-9.109511435441174
s(S'72000'
p256
I1
tp257
F-4.959478270971545
s(S'50020'
p258
I2
tp259
F-3.98769624779921
s(S'10115'
p260
I0
tp261
F-8.223359809188503
s(S'10020'
p262
I0
tp263
F-92.73955973172822
s(S'12100'
p264
I1
tp265
F-77.52590125077987
s(S'10060'
p266
I0
tp267
F5.823262028992993
s(S'00001'
p268
I1
tp269
F-14.517111816383494
s(S'10212'
p270
I2
tp271
F0.22982646283439356
s(S'00442'
p272
I1
tp273
F7.986616073431208
s(S'00015'
p274
I1
tp275
F6.626554866913998
s(S'32130'
p276
I2
tp277
F-6.704755912614968
s(S'30102'
p278
I2
tp279
F-4.043403608675593
s(S'11100'
p280
I1
tp281
F-76.87081072049386
s(S'01521'
p282
I2
tp283
F8.64661212385151
s(S'06001'
p284
I1
tp285
F-22.354678754205267
s(S'40100'
p286
I0
tp287
F-11.088525534233145
s(S'10000'
p288
I1
tp289
F-58.28876729275478
s(S'00112'
p290
I0
tp291
F11.907310823661097
s(S'02021'
p292
I0
tp293
F-51.12024898983737
s(S'11431'
p294
I0
tp295
F-49.12630042755538
s(S'11110'
p296
I0
tp297
F9.739654158077304
s(S'14112'
p298
I0
tp299
F-32.83163799444127
s(S'11052'
p300
I2
tp301
F1.9885306733395873
s(S'60211'
p302
I0
tp303
F11.003657980412646
s(S'00242'
p304
I0
tp305
F11.997287796744661
s(S'40000'
p306
I2
tp307
F-99.6415843259686
s(S'30113'
p308
I1
tp309
F2.1459130391186503
s(S'13011'
p310
I0
tp311
F-78.56724197544713
s(S'52511'
p312
I0
tp313
I5
s(S'01110'
p314
I2
tp315
F-34.51501020224147
s(S'41102'
p316
I2
tp317
F-27.499687393038144
s(S'05120'
p318
I1
tp319
F3.4185890678524204
s(S'40021'
p320
I1
tp321
F2.711747688193133
s(S'02110'
p322
I1
tp323
F-35.32622305806423
s(S'30141'
p324
I2
tp325
F5.064895149507904
s(S'11133'
p326
I2
tp327
F-13.039969155389663
s(S'10105'
p328
I0
tp329
F2.421672756854468
s(S'11043'
p330
I0
tp331
F6.585249297066944
s(S'20010'
p332
I1
tp333
F-53.946964276504204
s(S'[0, 3, 1, 1, 0]False'
p334
I2
tp335
F8.49369881144719
s(S'01201'
p336
I2
tp337
F3.0733769519917904
s(S'43112'
p338
I2
tp339
F2.147041164909466
s(S'20140'
p340
I2
tp341
F4.874475313567317
s(S'30122'
p342
I0
tp343
F6.148898314405091
s(S'01103'
p344
I2
tp345
F-12.341930737633891
s(S'031711'
p346
I1
tp347
I1
s(S'25000'
p348
I1
tp349
F-92.21803842107924
s(S'43120'
p350
I2
tp351
F6.907818172567306
s(S'11021'
p352
I0
tp353
F-149.68145081887698
s(S'11240'
p354
I1
tp355
F4.987148717292722
s(S'24110'
p356
I0
tp357
F-8.707039840691994
s(S'21112'
p358
I0
tp359
F-130.2614263547394
s(S'35210'
p360
I1
tp361
F6.180191796019964
s(S'21130'
p362
I2
tp363
F6.134906422971221
s(S'21021'
p364
I0
tp365
F-92.6065920387238
s(S'05110'
p366
I2
tp367
F-2.591136130089117
s(S'15040'
p368
I1
tp369
F2.720645763453001
s(S'02013'
p370
I0
tp371
F-20.157533365647602
s(S'21311'
p372
I0
tp373
F-36.34058620420177
s(S'53000'
p374
I2
tp375
F-60.056320538934955
s(S'01013'
p376
I1
tp377
F-10.5380505179761
s(S'51013'
p378
I1
tp379
F-19.00723198822731
s(S'01112'
p380
I1
tp381
F-2.3232959641167215
s(S'13402'
p382
I0
tp383
I5
s(S'22101'
p384
I0
tp385
F-24.44779113300473
s(S'11300'
p386
I0
tp387
F-105.93211817336152
s(S'12115'
p388
I2
tp389
F4.379172813613036
s(S'04110'
p390
I2
tp391
F8.228005288284347
s(S'20124'
p392
I1
tp393
F4.727092667655175
s(S'20113'
p394
I0
tp395
F-13.693189291863122
s(S'31002'
p396
I2
tp397
I-200
s(S'50200'
p398
I2
tp399
F-2.9670468170146798
s(S'40130'
p400
I1
tp401
F6.7058080463110645
s(S'03012'
p402
I0
tp403
F-7.101017120624786
s(S'41012'
p404
I1
tp405
F-7.9074052959133825
s(S'22012'
p406
I1
tp407
F-4.606868195764687
s(S'12103'
p408
I2
tp409
F2.197425721541881
s(S'10413'
p410
I1
tp411
I1
s(S'41031'
p412
I0
tp413
F-72.13136668536798
s(S'00300'
p414
I0
tp415
F12.867215170286421
s(S'01152'
p416
I2
tp417
F8.318935489997953
s(S'40210'
p418
I1
tp419
F5.882469692616469
s(S'31000'
p420
I1
tp421
F-196.62522656963105
s(S'20040'
p422
I1
tp423
F-8.766482040436577
s(S'12021'
p424
I2
tp425
F-54.804169177066036
s(S'12212'
p426
I2
tp427
F2.945496358880392
s(S'14300'
p428
I2
tp429
F-43.78936182794117
s(S'00222'
p430
I1
tp431
F11.340154994248996
s(S'06110'
p432
I2
tp433
F-4.756709242626116
s(S'12040'
p434
I1
tp435
F0.3573382118148537
s(S'00021'
p436
I0
tp437
F-128.44823588581826
s(S'02221'
p438
I0
tp439
I5
s(S'00116'
p440
I0
tp441
F12.571235757940071
s(S'21231'
p442
I1
tp443
F1.7012198847936795
s(S'51111'
p444
I1
tp445
F2.5328955649009286
s(S'31040'
p446
I1
tp447
F4.698926447667366
s(S'01160'
p448
I2
tp449
F5.147915066480448
s(S'00223'
p450
I2
tp451
F6.915480364991548
s(S'00351'
p452
I1
tp453
F11.147026584228584
s(S'20321'
p454
I1
tp455
F6.893198690859239
s(S'10012'
p456
I0
tp457
F-86.77560796176498
s(S'12311'
p458
I1
tp459
F-3.077949286685711
s(S'15101'
p460
I2
tp461
F-2.5088702419887428
s(S'10431'
p462
I2
tp463
F5.856737946941058
s(S'33111'
p464
I1
tp465
F0.8093318536174801
s(S'32011'
p466
I0
tp467
F-73.71460722045893
s(S'11603'
p468
I1
tp469
F1.69321101563097
s(S'61101'
p470
I1
tp471
F-12.937044221222449
s(S'11013'
p472
I2
tp473
F-14.861617837756874
s(S'01002'
p474
I0
tp475
F-86.53343368587903
s(S'20310'
p476
I1
tp477
F4.027706619395145
s(S'53011'
p478
I2
tp479
F-2.049132431177883
s(S'00512'
p480
I0
tp481
F13.490020469377708
s(S'00034'
p482
I1
tp483
F-44.76185292096127
s(S'[0, 2, 1, 1, 0]False'
p484
I0
tp485
F6.096396954137595
s(S'21300'
p486
I2
tp487
F-9.793084295143421
s(S'01221'
p488
I0
tp489
F10.481492773634045
s(S'14011'
p490
I0
tp491
F-120.15883907539344
s(S'00202'
p492
I0
tp493
F6.387380792865466
s(S'30011'
p494
I2
tp495
F-91.55296823147788
s(S'50100'
p496
I2
tp497
F6.37136963589602
s(S'10303'
p498
I1
tp499
F5.513055012625403
s(S'00502'
p500
I0
tp501
F14.112149396334102
s(S'41131'
p502
I2
tp503
F2.5508414723883495
s(S'41330'
p504
I2
tp505
I1
s(S'62100'
p506
I1
tp507
F-60.57174549993229
s(S'42010'
p508
I2
tp509
F-3.9287583481757493
s(S'51104'
p510
I2
tp511
I1
s(S'43020'
p512
I0
tp513
F9.366264894055504
s(S'20412'
p514
I2
tp515
F6.5388099169678515
s(S'40013'
p516
I1
tp517
F-29.8044383831243
s(S'12112'
p518
I1
tp519
F-30.075690269125083
s(S'01401'
p520
I0
tp521
F-14.259856289434431
s(S'13100'
p522
I1
tp523
F-17.272352391078453
s(S'13300'
p524
I0
tp525
F-97.2623239167939
s(S'03021'
p526
I2
tp527
F-11.609520990306581
s(S'40201'
p528
I2
tp529
F-32.706923356123596
s(S'16020'
p530
I0
tp531
F10.369224446281258
s(S'20004'
p532
I1
tp533
F0.3636963836994832
s(S'60200'
p534
I1
tp535
F-6.434169127994416
s(S'72000'
p536
I2
tp537
F-5.080504723765863
s(S'11410'
p538
I1
tp539
F-34.072482118542695
s(S'11210'
p540
I0
tp541
F-37.29063878909936
s(S'15100'
p542
I1
tp543
F-15.24467009937958
s(S'41011'
p544
I2
tp545
F-3.410741606503125
s(S'12002'
p546
I0
tp547
I-200
s(S'13000'
p548
I1
tp549
F-98.8655758144642
s(S'15210'
p550
I1
tp551
F-1.324272079754616
s(S'22140'
p552
I0
tp553
F7.2767205201963785
s(S'34958'
p554
I2
tp555
I1
s(S'31110'
p556
I0
tp557
F-33.15201372349872
s(S'10220'
p558
I1
tp559
F5.773375909659057
s(S'21011'
p560
I0
tp561
F-130.7017679862679
s(S'15200'
p562
I0
tp563
F-27.484967989177417
s(S'60411'
p564
I0
tp565
F10.68980202900365
s(S'17074'
p566
I0
tp567
I5
s(S'02114'
p568
I0
tp569
F-2.9468825761248985
s(S'14201'
p570
I0
tp571
F-5.9204729379953545
s(S'23011'
p572
I1
tp573
F4.753101740761414
s(S'24000'
p574
I2
tp575
F-102.11304026631495
s(S'02015'
p576
I1
tp577
F0.9662146429308178
s(S'31101'
p578
I0
tp579
F4.682447778610575
s(S'41110'
p580
I0
tp581
F7.402421285412154
s(S'34011'
p582
I1
tp583
F-4.696369703591705
s(S'20014'
p584
I2
tp585
F-41.2922719995983
s(S'01015'
p586
I0
tp587
F-4.407840613472236
s(S'00000'
p588
I2
tp589
F-132.28392078331208
s(S'10304'
p590
I1
tp591
F-2.3190216199040297
s(S'40500'
p592
I2
tp593
F1.822128943460931
s(S'10034'
p594
I0
tp595
F-54.49308929697503
s(S'26100'
p596
I1
tp597
F-22.408095587808514
s(S'30003'
p598
I0
tp599
F-172.08668930202404
s(S'30112'
p600
I0
tp601
F-8.606718217080989
s(S'22130'
p602
I2
tp603
I1
s(S'12121'
p604
I0
tp605
F-36.766844236947456
s(S'10001'
p606
I2
tp607
F-156.35269995038672
s(S'20103'
p608
I2
tp609
F-0.5059974979967625
s(S'22002'
p610
I1
tp611
F-70.93048027295445
s(S'21400'
p612
I0
tp613
F-43.35000505817813
s(S'21102'
p614
I0
tp615
F-201.02947724955715
s(S'26000'
p616
I1
tp617
F-95.51777664588332
s(S'21124'
p618
I2
tp619
F3.569211459734377
s(S'00213'
p620
I1
tp621
F8.31318034135156
s(S'40131'
p622
I2
tp623
F0.8145229936824946
s(S'44110'
p624
I0
tp625
F11.917724934307317
s(S'02001'
p626
I0
tp627
F-71.78828796347193
s(S'01420'
p628
I0
tp629
F12.557918883368968
s(S'40330'
p630
I0
tp631
F9.979139636201666
s(S'30113'
p632
I2
tp633
F-1.3979170658166944
s(S'20120'
p634
I2
tp635
F-5.165428771817971
s(S'01111'
p636
I1
tp637
F-3.7898000674862455
s(S'14101'
p638
I1
tp639
F-10.464487747027299
s(S'16001'
p640
I1
tp641
F-12.745133887500607
s(S'03121'
p642
I1
tp643
F-4.980336744788675
s(S'52110'
p644
I0
tp645
F9.964701168052333
s(S'11132'
p646
I1
tp647
F-68.04501154640187
s(S'11330'
p648
I0
tp649
F-1.008399909893189
s(S'00050'
p650
I2
tp651
F-5.578863777052625
s(S'20011'
p652
I2
tp653
F-75.18069076695575
s(S'11401'
p654
I2
tp655
F-9.866103949242973
s(S'15112'
p656
I2
tp657
F1.9585266396140861
s(S'31030'
p658
I2
tp659
F-1.6880791693681942
s(S'12200'
p660
I1
tp661
F-72.1182104964475
s(S'10052'
p662
I0
tp663
F-62.73743024050546
s(S'35110'
p664
I1
tp665
F7.854459516067057
s(S'21131'
p666
I1
tp667
F-6.6747640361148335
s(S'10231'
p668
I2
tp669
F6.843087606190908
s(S'05111'
p670
I1
tp671
F-4.933266297158647
s(S'01144'
p672
I1
tp673
I1
s(S'02204'
p674
I2
tp675
F2.9505931283712323
s(S'00342'
p676
I2
tp677
F8.540205206880202
s(S'32001'
p678
I0
tp679
F-30.30472381374421
s(S'11001'
p680
I0
tp681
F-115.95138255181553
s(S'62000'
p682
I0
tp683
F-123.23679816406587
s(S'00025'
p684
I1
tp685
F-42.83687444606916
s(S'00500'
p686
I0
tp687
F-3.0445925126250644
s(S'01211'
p688
I0
tp689
F-3.5419405751788364
s(S'14001'
p690
I0
tp691
I-200
s(S'11202'
p692
I1
tp693
F-62.62607313125884
s(S'00013'
p694
I0
tp695
F-73.30856608058494
s(S'30102'
p696
I1
tp697
F-2.0948364625819127
s(S'30030'
p698
I1
tp699
F5.313294909628491
s(S'11030'
p700
I0
tp701
F-48.836523870787495
s(S'13050'
p702
I2
tp703
F-0.7397047954547685
s(S'20510'
p704
I0
tp705
F11.896242156409421
s(S'16100'
p706
I1
tp707
F-2.4258312607555066
s(S'15000'
p708
I0
tp709
F-161.90013311712693
s(S'10022'
p710
I0
tp711
F-36.06912343571913
s(S'22013'
p712
I2
tp713
F-0.5154198593402937
s(S'12102'
p714
I1
tp715
F-139.7875417566979
s(S'00063'
p716
I0
tp717
F-29.456200744320025
s(S'22411'
p718
I0
tp719
I5
s(S'04021'
p720
I1
tp721
F-1.3599743340976622
s(S'30110'
p722
I0
tp723
F-5.784271977859014
s(S'40211'
p724
I2
tp725
F-14.52128769055818
s(S'32411'
p726
I0
tp727
F6.006021586334963
s(S'00230'
p728
I1
tp729
F7.155818939807765
s(S'51028'
p730
I2
tp731
I1
s(S'02140'
p732
I1
tp733
F3.2783867067349934
s(S'22600'
p734
I2
tp735
F5.060842654188008
s(S'10006'
p736
I1
tp737
F-120.53120766270587
s(S'02500'
p738
I1
tp739
I-200
s(S'01302'
p740
I0
tp741
F-8.987709479862126
s(S'22001'
p742
I2
tp743
F-84.76397208928088
s(S'14040'
p744
I2
tp745
F-1.544240951273286
s(S'00210'
p746
I2
tp747
F-45.31238947479796
s(S'02100'
p748
I2
tp749
F6.555828753783027
s(S'41115'
p750
I1
tp751
F2.187196757541921
s(S'21210'
p752
I0
tp753
F9.634113275121635
s(S'21600'
p754
I0
tp755
F-34.05798645490633
s(S'02600'
p756
I0
tp757
F8.723253551709504
s(S'10150'
p758
I0
tp759
F-3.816763160766053
s(S'22005'
p760
I0
tp761
F-0.7310608565724621
s(S'61200'
p762
I1
tp763
F-9.918172195739276
s(S'21301'
p764
I2
tp765
F-39.04
s(S'51110'
p766
I2
tp767
F5.166259899248832
s(S'00415'
p768
I2
tp769
F8.840197796221213
s(S'00036'
p770
I2
tp771
F-6.226076335979641
s(S'31402'
p772
I1
tp773
I1
s(S'20000'
p774
I0
tp775
F-167.0346453556103
s(S'21500'
p776
I1
tp777
F-34.403707112238834
s(S'05100'
p778
I2
tp779
F1.6700382209133302
s(S'33110'
p780
I2
tp781
F4.503920071287141
s(S'14112'
p782
I1
tp783
F-9.738097273839664
s(S'14150'
p784
I1
tp785
F5.236306192094048
s(S'61100'
p786
I2
tp787
F-41.05523871044018
s(S'62500'
p788
I2
tp789
F1.2632232200277935
s(S'11204'
p790
I0
tp791
F-33.41706559266649
s(S'21005'
p792
I1
tp793
F-78.50635198626253
s(S'10502'
p794
I2
tp795
F3.244575822237105
s(S'22041'
p796
I1
tp797
F1.3323389202843547
s(S'11140'
p798
I1
tp799
F-38.550284939303225
s(S'10033'
p800
I2
tp801
F-42.83965261633564
s(S'12012'
p802
I0
tp803
F-52.9572779375515
s(S'31300'
p804
I0
tp805
I-200
s(S'25100'
p806
I0
tp807
F1.4788932768992171
s(S'06101'
p808
I2
tp809
F1.3285345479726933
s(S'11150'
p810
I0
tp811
F-64.35946629792298
s(S'13210'
p812
I2
tp813
F5.5546163183046895
s(S'02203'
p814
I1
tp815
F-11.801984308581664
s(S'30020'
p816
I2
tp817
F-8.385377823507122
s(S'01011'
p818
I1
tp819
F-0.060886397698951766
s(S'51011'
p820
I1
tp821
I-200
s(S'40123'
p822
I2
tp823
F-0.6294548998705498
s(S'20421'
p824
I2
tp825
F2.6813202267317604
s(S'13400'
p826
I0
tp827
F-10.199182250747054
s(S'11105'
p828
I1
tp829
F-2.384717024514914
s(S'01042'
p830
I1
tp831
F6.065505214201876
s(S'41411'
p832
I2
tp833
F2.1449883685141593
s(S'13101'
p834
I2
tp835
F1.7578698152925107
s(S'11031'
p836
I2
tp837
F-20.064561460536527
s(S'20111'
p838
I0
tp839
F-16.68319623429358
s(S'41000'
p840
I0
tp841
F-90.68886346672979
s(S'00222'
p842
I2
tp843
F-6.212955828612868
s(S'20201'
p844
I0
tp845
F4.910518319761147
s(S'11411'
p846
I2
tp847
F5.737448556367708
s(S'10151'
p848
I2
tp849
F6.368478050399894
s(S'01133'
p850
I1
tp851
F3.6844989189272077
s(S'50401'
p852
I0
tp853
F7.107168690656477
s(S'42101'
p854
I1
tp855
F2.253404918191258
s(S'02005'
p856
I1
tp857
F-11.94958787515778
s(S'00400'
p858
I1
tp859
F-5.229923748096973
s(S'10415'
p860
I1
tp861
F2.308831075954572
s(S'13004'
p862
I1
tp863
F-12.774288122277696
s(S'05011'
p864
I1
tp865
F-1.1962490072056071
s(S'32120'
p866
I2
tp867
F-0.9308026146489672
s(S'10221'
p868
I2
tp869
F-31.490254875718815
s(S'21210'
p870
I1
tp871
I1
s(S'01115'
p872
I0
tp873
F4.237085636138527
s(S'50010'
p874
I0
tp875
F-0.4211150849556482
s(S'13020'
p876
I1
tp877
F5.332972831489814
s(S'04010'
p878
I2
tp879
F-27.380182384722996
s(S'11220'
p880
I1
tp881
F-2.577925620172876
s(S'20015'
p882
I1
tp883
F0.399851227235696
s(S'40122'
p884
I2
tp885
F0.39822835030523007
s(S'32111'
p886
I2
tp887
F-6.722785187994865
s(S'40501'
p888
I1
tp889
F1.848466358295126
s(S'00023'
p890
I0
tp891
F-35.983726124231055
s(S'00110'
p892
I0
tp893
F-38.71411236915425
s(S'02310'
p894
I0
tp895
F-0.734489175064919
s(S'04200'
p896
I2
tp897
F3.30352378415741
s(S'40200'
p898
I2
tp899
F-2.6261085882348585
s(S'00102'
p900
I2
tp901
F5.26072275445411
s(S'02400'
p902
I0
tp903
F-10.313873459831445
s(S'10040'
p904
I2
tp905
F-42.343492013336494
s(S'04010'
p906
I0
tp907
F-19.325542855152563
s(S'11005'
p908
I1
tp909
F-83.7969540597241
s(S'04122'
p910
I1
tp911
F1.201984
s(S'33428'
p912
I0
tp913
F5.0
s(S'01022'
p914
I2
tp915
F-1.5917100591554563
s(S'01204'
p916
I1
tp917
F0.5466023490806501
s(S'01004'
p918
I0
tp919
F-4.30179468400194
s(S'01215'
p920
I1
tp921
F3.8341612840604107
s(S'05001'
p922
I1
tp923
F-14.312103459989483
s(S'01532'
p924
I1
tp925
F6.775610785964511
s(S'20312'
p926
I1
tp927
I-200
s(S'14100'
p928
I2
tp929
F-1.0642432524304677
s(S'50021'
p930
I1
tp931
F1.2326280045553313
s(S'30201'
p932
I0
tp933
F-29.431750138137875
s(S'14013'
p934
I0
tp935
F4.372702152358294
s(S'00204'
p936
I0
tp937
F13.944463388377287
s(S'12130'
p938
I0
tp939
F-0.35764207837923134
s(S'34100'
p940
I1
tp941
F-9.861530436444395
s(S'01304'
p942
I1
tp943
F6.86896625241345
s(S'03400'
p944
I2
tp945
F7.635893589316456
s(S'60002'
p946
I2
tp947
F-74.40729902810716
s(S'10101'
p948
I0
tp949
F-1.7124936503016333
s(S'13110'
p950
I0
tp951
F-10.50619290962724
s(S'02041'
p952
I1
tp953
F-22.74989375573631
s(S'00632'
p954
I0
tp955
I5
s(S'21002'
p956
I2
tp957
F-13.108799930086423
s(S'12110'
p958
I1
tp959
F-34.84125079135916
s(S'01403'
p960
I0
tp961
F5.244944234127972
s(S'20211'
p962
I0
tp963
F-31.937548206564536
s(S'11011'
p964
I1
tp965
F-56.17804570203322
s(S'30401'
p966
I1
tp967
F6.829588571793089
s(S'20006'
p968
I1
tp969
F-68.69186836111368
s(S'14110'
p970
I1
tp971
F4.810752504979202
s(S'11212'
p972
I0
tp973
F5.490683732591679
s(S'13121'
p974
I0
tp975
F6.92004968221687
s(S'14011'
p976
I1
tp977
F-113.16223396669365
s(S'11321'
p978
I0
tp979
F-108.43564080261287
s(S'12004'
p980
I0
tp981
F-62.33921269141886
s(S'01140'
p982
I1
tp983
F6.22872350483105
s(S'11016'
p984
I2
tp985
F-4.422573242325664
s(S'31112'
p986
I0
tp987
F1.5070060996433001
s(S'12014'
p988
I1
tp989
F0.5264015573918277
s(S'10226'
p990
I1
tp991
I1
s(S'21013'
p992
I0
tp993
F-39.75814029020471
s(S'20212'
p994
I1
tp995
F6.660237620812978
s(S'41100'
p996
I1
tp997
F-15.625837179380467
s(S'41300'
p998
I1
tp999
I-200
s(S'32110'
p1000
I0
tp1001
F9.588271582496958
s(S'02112'
p1002
I0
tp1003
F2.3022829098329023
s(S'04130'
p1004
I0
tp1005
I5
s(S'01512'
p1006
I0
tp1007
F11.73728815131496
s(S'04032'
p1008
I2
tp1009
F3.392275176908605
s(S'04000'
p1010
I2
tp1011
F-122.11239930652684
s(S'11041'
p1012
I1
tp1013
F-44.863591945539525
s(S'00134'
p1014
I0
tp1015
F6.5502489934305945
s(S'11400'
p1016
I2
tp1017
F4.261339768476949
s(S'01203'
p1018
I1
tp1019
F-5.05348220231531
s(S'13141'
p1020
I2
tp1021
F2.895325626194385
s(S'51500'
p1022
I0
tp1023
F6.700725118067996
s(S'11511'
p1024
I0
tp1025
F-37.322917938721595
s(S'11103'
p1026
I2
tp1027
F-50.107135281296564
s(S'11023'
p1028
I1
tp1029
F4.98691184299684
s(S'21110'
p1030
I1
tp1031
F-48.24106085079808
s(S'10230'
p1032
I2
tp1033
F5.788041066143407
s(S'11500'
p1034
I2
tp1035
F4.800716783426422
s(S'22000'
p1036
I1
tp1037
F-205.86970102878593
s(S'23101'
p1038
I1
tp1039
F-3.244461153763977
s(S'21331'
p1040
I1
tp1041
F-1.6506535166965097
s(S'14041'
p1042
I1
tp1043
I-200
s(S'21100'
p1044
I0
tp1045
F-180.54871084695702
s(S'00211'
p1046
I1
tp1047
F-32.40358844767958
s(S'51015'
p1048
I0
tp1049
F-0.4620682679684764
s(S'11111'
p1050
I2
tp1051
F-19.42748483038083
s(S'10120'
p1052
I0
tp1053
F-54.58355466268968
s(S'35000'
p1054
I2
tp1055
F-2.5588922733193407
s(S'02003'
p1056
I0
tp1057
F-82.84073190894364
s(S'41030'
p1058
I0
tp1059
F5.769839834620138
s(S'11302'
p1060
I1
tp1061
F-64.85843929780897
s(S'40311'
p1062
I1
tp1063
F-34.93000594621498
s(S'21004'
p1064
I0
tp1065
F-29.768028240279097
s(S'41202'
p1066
I2
tp1067
I-200
s(S'41004'
p1068
I1
tp1069
F-5.474604637958418
s(S'03032'
p1070
I0
tp1071
F8.589116306947332
s(S'61310'
p1072
I2
tp1073
F1.856542812517842
s(S'13051'
p1074
I2
tp1075
F-2.8406450333091042
s(S'11134'
p1076
I1
tp1077
I1
s(S'41014'
p1078
I0
tp1079
F-53.408436004776036
s(S'11115'
p1080
I2
tp1081
F-17.03257449706478
s(S'28081'
p1082
I2
tp1083
I1
s(S'00150'
p1084
I0
tp1085
F-1.1755640350275458
s(S'00102'
p1086
I0
tp1087
F-13.522283865504606
s(S'00404'
p1088
I0
tp1089
F12.626801360294893
s(S'01104'
p1090
I1
tp1091
F-2.3483737298179417
s(S'00325'
p1092
I1
tp1093
F10.223496772093364
s(S'52300'
p1094
I1
tp1095
F2.005001363087504
s(S'00233'
p1096
I2
tp1097
F5.055410248811308
s(S'20520'
p1098
I0
tp1099
I5
s(S'10301'
p1100
I0
tp1101
F-31.45909694627667
s(S'30511'
p1102
I0
tp1103
F9.425979214458946
s(S'12023'
p1104
I1
tp1105
I1
s(S'30040'
p1106
I2
tp1107
F-4.610909271156444
s(S'12210'
p1108
I1
tp1109
F3.8114645728353365
s(S'30402'
p1110
I2
tp1111
F5.9203186990647225
s(S'30021'
p1112
I1
tp1113
F-56.12033618359359
s(S'11003'
p1114
I0
tp1115
F-91.54955643478958
s(S'20050'
p1116
I1
tp1117
F-1.427127686917046
s(S'24302'
p1118
I1
tp1119
I1
s(S'20420'
p1120
I1
tp1121
F2.783674943192273
s(S'02101'
p1122
I2
tp1123
F-8.391214951581226
s(S'20100'
p1124
I2
tp1125
F4.266084404312468
s(S'40001'
p1126
I2
tp1127
F-119.65120823990272
s(S'01043'
p1128
I2
tp1129
F4.425972361214243
s(S'40001'
p1130
I0
tp1131
F-110.31676284555245
s(S'00015'
p1132
I0
tp1133
I-200
s(S'20131'
p1134
I0
tp1135
F7.409432978970812
s(S'50011'
p1136
I1
tp1137
I-200
s(S'11032'
p1138
I0
tp1139
F4.199576806799
s(S'21112'
p1140
I1
tp1141
F-24.614416740362408
s(S'12202'
p1142
I2
tp1143
I1
s(S'13150'
p1144
I0
tp1145
F5.945143939022381
s(S'10024'
p1146
I0
tp1147
F-43.05661376064941
s(S'12104'
p1148
I1
tp1149
F-8.56466322685016
s(S'01051'
p1150
I2
tp1151
F3.838210681613128
s(S'05010'
p1152
I2
tp1153
F-13.094682196867844
s(S'01200'
p1154
I2
tp1155
F5.240899758479356
s(S'01000'
p1156
I1
tp1157
F-68.19555085216648
s(S'[0, 2, 1, 0, 0]False'
p1158
I0
tp1159
F8.84155925720899
s(S'00232'
p1160
I1
tp1161
F8.247524077061778
s(S'01310'
p1162
I1
tp1163
F-1.0861070669312576
s(S'02142'
p1164
I1
tp1165
I1
s(S'03200'
p1166
I0
tp1167
I-200
s(S'10004'
p1168
I1
tp1169
F-155.06032222861433
s(S'11311'
p1170
I0
tp1171
F9.771972547016604
s(S'31011'
p1172
I2
tp1173
F-77.93288332555075
s(S'03110'
p1174
I2
tp1175
F6.647901205969999
s(S'53001'
p1176
I2
tp1177
F-54.15039576122586
s(S'21030'
p1178
I1
tp1179
F-9.815608818663966
s(S'22200'
p1180
I1
tp1181
F-45.644173225342925
s(S'32400'
p1182
I2
tp1183
F0.35723595678822284
s(S'40011'
p1184
I0
tp1185
I-200
s(S'12114'
p1186
I2
tp1187
F-8.962404274292023
s(S'01131'
p1188
I2
tp1189
F6.585010069957311
s(S'52112'
p1190
I0
tp1191
F5.603522257060459
s(S'31610'
p1192
I0
tp1193
F6.458533174847731
s(S'63200'
p1194
I2
tp1195
F6.68532742146619
s(S'63000'
p1196
I1
tp1197
F-50.864748345871845
s(S'21421'
p1198
I0
tp1199
I5
s(S'10041'
p1200
I1
tp1201
F3.734702064951656
s(S'20002'
p1202
I0
tp1203
F-122.33928335976356
s(S'30200'
p1204
I1
tp1205
F-33.83478080674846
s(S'11130'
p1206
I1
tp1207
F-36.58973407647503
s(S'41010'
p1208
I0
tp1209
F-3.1947004950898306
s(S'12000'
p1210
I1
tp1211
F-111.77696839287519
s(S'13002'
p1212
I0
tp1213
F-29.79641296237749
s(S'11202'
p1214
I0
tp1215
F-70.3961502706806
s(S'10044'
p1216
I1
tp1217
F-8.909222494375697
s(S'00063'
p1218
I1
tp1219
F5.377561585526696
s(S'10200'
p1220
I0
tp1221
F-34.861964803289176
s(S'12010'
p1222
I0
tp1223
F-32.080910649792926
s(S'12400'
p1224
I2
tp1225
F5.4934301231458385
s(S'60101'
p1226
I0
tp1227
F-12.16149456853923
s(S'00311'
p1228
I1
tp1229
F-33.117655197436214
s(S'12300'
p1230
I0
tp1231
F-97.7780642741692
s(S'12020'
p1232
I2
tp1233
F-52.298088206890945
s(S'10110'
p1234
I2
tp1235
F-4.9145350814603
s(S'20114'
p1236
I0
tp1237
F5.628327613757038
s(S'02201'
p1238
I1
tp1239
F-2.9920393030652175
s(S'06111'
p1240
I2
tp1241
F4.740230790100372
s(S'41112'
p1242
I1
tp1243
F-0.09334325927475225
s(S'52001'
p1244
I1
tp1245
F-21.198645026810844
s(S'[1, 1, 0, 0, 0]True'
p1246
I0
tp1247
I5
s(S'00002'
p1248
I1
tp1249
F-15.406281327808507
s(S'40012'
p1250
I1
tp1251
F-4.976785693098522
s(S'33011'
p1252
I1
tp1253
F-1.4510573190581426
s(S'50410'
p1254
I2
tp1255
F5.83580916852494
s(S'16000'
p1256
I1
tp1257
F-114.34121366423417
s(S'50004'
p1258
I0
tp1259
F-23.033280204075083
s(S'12111'
p1260
I2
tp1261
F-39.71136039815307
s(S'10032'
p1262
I2
tp1263
F-47.32693583197042
s(S'10003'
p1264
I1
tp1265
F-29.481744685119704
s(S'20320'
p1266
I1
tp1267
F3.263186107157981
s(S'41002'
p1268
I0
tp1269
F-98.95162935239742
s(S'32031'
p1270
I1
tp1271
F-3.6300463799582072
s(S'30013'
p1272
I0
tp1273
F-29.855767206631732
s(S'30311'
p1274
I1
tp1275
F5.773017662503852
s(S'00142'
p1276
I0
tp1277
F-33.246664669317965
s(S'03030'
p1278
I2
tp1279
F2.23707107345899
s(S'00215'
p1280
I0
tp1281
F11.702419353876289
s(S'41202'
p1282
I0
tp1283
F-34.92058803861846
s(S'10024'
p1284
I2
tp1285
F-11.382712701383086
s(S'03000'
p1286
I0
tp1287
F-98.8627814025559
s(S'10141'
p1288
I1
tp1289
F8.02066049216024
s(S'10311'
p1290
I0
tp1291
F-13.676561416425141
s(S'90627'
p1292
I1
tp1293
I1
s(S'30412'
p1294
I0
tp1295
F10.389797222663667
s(S'22111'
p1296
I1
tp1297
F2.574260383022847
s(S'13022'
p1298
I1
tp1299
F0.7621488469119384
s(S'14022'
p1300
I2
tp1301
F0.6991924747540827
s(S'11130'
p1302
I0
tp1303
F-34.688065709510084
s(S'50101'
p1304
I2
tp1305
F5.615072979165793
s(S'20013'
p1306
I1
tp1307
F-8.808526768713305
s(S'23000'
p1308
I1
tp1309
F-113.22303113099517
s(S'43111'
p1310
I0
tp1311
F-3.362577717538052
s(S'01100'
p1312
I0
tp1313
F-96.60148538783804
s(S'21122'
p1314
I0
tp1315
F-39.668201432053515
s(S'00321'
p1316
I0
tp1317
F-27.145921364290942
s(S'21051'
p1318
I0
tp1319
F4.7853735361834735
s(S'21003'
p1320
I2
tp1321
F-110.39942136126409
s(S'00205'
p1322
I2
tp1323
F7.351828432499641
s(S'40012'
p1324
I2
tp1325
F-15.778761903561426
s(S'21133'
p1326
I0
tp1327
F-5.262184067459711
s(S'15010'
p1328
I0
tp1329
F5.689612240190597
s(S'50211'
p1330
I2
tp1331
F1.8448645796611292
s(S'21240'
p1332
I0
tp1333
F9.365232083374135
s(S'21031'
p1334
I1
tp1335
F0.4659887961489315
s(S'34111'
p1336
I1
tp1337
F3.8971100943202557
s(S'01500'
p1338
I2
tp1339
F4.594175780566195
s(S'25110'
p1340
I0
tp1341
F-9.330561699289838
s(S'03300'
p1342
I2
tp1343
F-1.3468517160712419
s(S'40310'
p1344
I2
tp1345
I1
s(S'14021'
p1346
I1
tp1347
F-15.299824792566021
s(S'41023'
p1348
I2
tp1349
I1
s(S'21133'
p1350
I1
tp1351
F-15.098180344752112
s(S'63100'
p1352
I0
tp1353
F-5.678291213951349
s(S'11500'
p1354
I0
tp1355
F-52.59637467064602
s(S'10014'
p1356
I2
tp1357
F-4.371334052860863
s(S'30400'
p1358
I2
tp1359
F6.130173193384011
s(S'12132'
p1360
I0
tp1361
F-66.67709013590495
s(S'31200'
p1362
I1
tp1363
F-46.249221442392795
s(S'04002'
p1364
I0
tp1365
I5
s(S'10020'
p1366
I1
tp1367
F5.0383050961815306
s(S'22011'
p1368
I1
tp1369
F-69.63056075093783
s(S'12100'
p1370
I0
tp1371
F-47.193929557830344
s(S'00001'
p1372
I2
tp1373
F-148.88749779592752
s(S'13112'
p1374
I0
tp1375
F-35.39314551640672
s(S'11600'
p1376
I2
tp1377
F-3.513592419702149
s(S'22311'
p1378
I1
tp1379
F3.8280846039459515
s(S'21411'
p1380
I0
tp1381
I5
s(S'40100'
p1382
I1
tp1383
F-6.8556081806213856
s(S'10000'
p1384
I2
tp1385
F-220.34209305328267
s(S'02021'
p1386
I1
tp1387
F-67.3252401647969
s(S'20600'
p1388
I2
tp1389
F4.511578184761655
s(S'20051'
p1390
I2
tp1391
F-0.827744618509227
s(S'00000'
p1392
I0
tp1393
F-130.13240024679743
s(S'13123'
p1394
I0
tp1395
F-34.99998545337694
s(S'11441'
p1396
I2
tp1397
F-0.6373277395409596
s(S'40000'
p1398
I1
tp1399
F-95.55179833264583
s(S'03212'
p1400
I2
tp1401
F5.320429012908953
s(S'33001'
p1402
I2
tp1403
F-82.37018522210678
s(S'21301'
p1404
I0
tp1405
F-36.48783676092388
s(S'51112'
p1406
I1
tp1407
F-12.917077327901755
s(S'41221'
p1408
I0
tp1409
F7.022743697307359
s(S'21015'
p1410
I0
tp1411
F6.484038342226865
s(S'41102'
p1412
I1
tp1413
F-15.45798504438476
s(S'10045'
p1414
I0
tp1415
F7.289493064064427
s(S'44200'
p1416
I1
tp1417
F6.6459003098600675
s(S'02122'
p1418
I0
tp1419
F5.467126922896927
s(S'02110'
p1420
I0
tp1421
F9.095166731680683
s(S'01510'
p1422
I0
tp1423
F11.943825810670166
s(S'31011'
p1424
I0
tp1425
F-25.92033559302024
s(S'31105'
p1426
I0
tp1427
F-4.083112762017164
s(S'20010'
p1428
I2
tp1429
F0.011924618837533804
s(S'00121'
p1430
I2
tp1431
F-32.83803537652573
s(S'42111'
p1432
I0
tp1433
F-0.09220599293302278
s(S'00004'
p1434
I2
tp1435
F-148.9607085889246
s(S'01201'
p1436
I1
tp1437
F-37.22916711447829
s(S'21031'
p1438
I0
tp1439
F-40.08772431051914
s(S'00422'
p1440
I2
tp1441
F-31.5374853414704
s(S'12203'
p1442
I0
tp1443
I5
s(S'53100'
p1444
I1
tp1445
F-8.680640781288101
s(S'25000'
p1446
I2
tp1447
F-22.971922368176884
s(S'11021'
p1448
I1
tp1449
F-153.1441366747161
s(S'32311'
p1450
I0
tp1451
F5.942432249508086
s(S'10005'
p1452
I2
tp1453
I-200
s(S'21610'
p1454
I1
tp1455
F2.6843997349930477
s(S'02031'
p1456
I1
tp1457
F-21.993075316067006
s(S'00062'
p1458
I2
tp1459
I-200
s(S'53000'
p1460
I1
tp1461
F-21.54278273905841
s(S'51013'
p1462
I0
tp1463
F-22.257904934107152
s(S'10122'
p1464
I0
tp1465
F8.464887768393805
s(S'10611'
p1466
I0
tp1467
I5
s(S'52428'
p1468
I1
tp1469
F1.0
s(S'32401'
p1470
I1
tp1471
F4.18875666612923
s(S'20101'
p1472
I2
tp1473
F-23.933299168007835
s(S'40005'
p1474
I2
tp1475
F-9.842075315853608
s(S'11300'
p1476
I1
tp1477
F-106.3837218553558
s(S'01404'
p1478
I2
tp1479
F1.5251574137995494
s(S'45210'
p1480
I2
tp1481
I1
s(S'16120'
p1482
I0
tp1483
F12.297045247244776
s(S'13103'
p1484
I1
tp1485
F-6.888607655259226
s(S'11122'
p1486
I0
tp1487
F3.2790394220025467
s(S'20113'
p1488
I1
tp1489
F-15.334096861364356
s(S'50510'
p1490
I0
tp1491
I5
s(S'01602'
p1492
I0
tp1493
I5
s(S'41012'
p1494
I0
tp1495
F-6.420375232026069
s(S'00532'
p1496
I2
tp1497
F6.525431526862352
s(S'11041'
p1498
I2
tp1499
F-72.9357095318219
s(S'22012'
p1500
I2
tp1501
F-14.792792948774132
s(S'00100'
p1502
I0
tp1503
F-39.39605091832087
s(S'00402'
p1504
I0
tp1505
F10.83857905717477
s(S'41031'
p1506
I1
tp1507
F-46.94969431838046
s(S'02300'
p1508
I0
tp1509
F10.760405233897693
s(S'11143'
p1510
I2
tp1511
F-3.4153744206992602
s(S'13012'
p1512
I2
tp1513
F-5.323920037710163
s(S'21212'
p1514
I0
tp1515
F1.6059428306208983
s(S'06100'
p1516
I0
tp1517
F-0.46960389163854205
s(S'43010'
p1518
I1
tp1519
F7.875587860046093
s(S'20040'
p1520
I0
tp1521
F-57.76895825817569
s(S'12021'
p1522
I1
tp1523
F-19.50156142049149
s(S'20022'
p1524
I2
tp1525
F-4.661296606863626
s(S'12212'
p1526
I1
tp1527
F-0.18480857447675714
s(S'02200'
p1528
I2
tp1529
F6.064319101470701
s(S'06110'
p1530
I1
tp1531
F-6.424280761852386
s(S'32005'
p1532
I0
tp1533
F-0.1022488439198268
s(S'03111'
p1534
I2
tp1535
F0.4635699870019871
s(S'22040'
p1536
I1
tp1537
F1.110349086233478
s(S'23113'
p1538
I0
tp1539
F5.600444552831265
s(S'170010'
p1540
I0
tp1541
I-200
s(S'00021'
p1542
I1
tp1543
F5.07516098412435
s(S'00033'
p1544
I2
tp1545
F3.7711216024275847
s(S'51111'
p1546
I2
tp1547
F-11.25952064870357
s(S'04021'
p1548
I0
tp1549
F-35.2
s(S'10060'
p1550
I1
tp1551
F-0.005944486711849883
s(S'02211'
p1552
I0
tp1553
F-7.1290646520195455
s(S'23200'
p1554
I0
tp1555
F-31.43074693785507
s(S'12311'
p1556
I0
tp1557
F-2.9438618034260395
s(S'21121'
p1558
I0
tp1559
F-89.87660613613212
s(S'50015'
p1560
I2
tp1561
F-0.8771189906838462
s(S'26110'
p1562
I1
tp1563
F-21.74696311548643
s(S'33111'
p1564
I2
tp1565
F-0.25662691310213503
s(S'32011'
p1566
I1
tp1567
F-51.264099985774685
s(S'10140'
p1568
I2
tp1569
F5.987911590695855
s(S'61101'
p1570
I2
tp1571
F-1.0352765903650538
s(S'00341'
p1572
I2
tp1573
F7.088090446218849
s(S'40114'
p1574
I1
tp1575
F-3.22323583799269
s(S'01002'
p1576
I1
tp1577
F-17.53128379964886
s(S'05310'
p1578
I1
tp1579
F4.274795545205038
s(S'20310'
p1580
I0
tp1581
F-36.50137470595982
s(S'50110'
p1582
I0
tp1583
F1.8230209351340456
s(S'12401'
p1584
I2
tp1585
F-51.07261323650732
s(S'14102'
p1586
I1
tp1587
F-7.0167858040975855
s(S'01312'
p1588
I1
tp1589
F5.21838979295321
s(S'51400'
p1590
I0
tp1591
F7.52243776298293
s(S'40430'
p1592
I2
tp1593
F1.5885087071772626
s(S'05300'
p1594
I0
tp1595
F10.849247439352814
s(S'50100'
p1596
I1
tp1597
F-20.13449527733846
s(S'10111'
p1598
I2
tp1599
F7.766848591911575
s(S'12041'
p1600
I0
tp1601
F-59.36521372528348
s(S'42001'
p1602
I2
tp1603
F-13.244631739633647
s(S'62100'
p1604
I2
tp1605
F-55.445097824406794
s(S'10103'
p1606
I1
tp1607
F-12.360999278178625
s(S'81938'
p1608
I2
tp1609
I1
s(S'11116'
p1610
I0
tp1611
F4.430569047490823
s(S'40013'
p1612
I0
tp1613
F-53.93103740040769
s(S'13100'
p1614
I2
tp1615
F-55.576839368025446
s(S'13300'
p1616
I1
tp1617
F-68.55268421675066
s(S'11502'
p1618
I1
tp1619
F0.7706317978574984
s(S'20004'
p1620
I0
tp1621
F-146.36152415618832
s(S'01413'
p1622
I0
tp1623
F9.320377333559026
s(S'60200'
p1624
I0
tp1625
F7.716479150675729
s(S'11006'
p1626
I2
tp1627
I-200
s(S'11410'
p1628
I2
tp1629
F-36.366304447911475
s(S'11210'
p1630
I1
tp1631
F-35.0936569768808
s(S'02014'
p1632
I2
tp1633
F-10.433015016758812
s(S'21030'
p1634
I2
tp1635
F6.273161097218565
s(S'12002'
p1636
I1
tp1637
F-50.88119425373815
s(S'03103'
p1638
I0
tp1639
F6.60247028381474
s(S'13000'
p1640
I0
tp1641
F-170.29357329540494
s(S'11200'
p1642
I0
tp1643
F-114.71483956417322
s(S'10202'
p1644
I0
tp1645
F10.691177041604336
s(S'10220'
p1646
I2
tp1647
F-69.68758808124763
s(S'21011'
p1648
I1
tp1649
F-139.3872070531082
s(S'31020'
p1650
I1
tp1651
F4.52829481377319
s(S'41302'
p1652
I0
tp1653
F5.258286255152429
s(S'31014'
p1654
I2
tp1655
F-10.678595355952949
s(S'41110'
p1656
I1
tp1657
F-2.4384801153866285
s(S'34011'
p1658
I2
tp1659
F-40.947865369540025
s(S'01015'
p1660
I1
tp1661
F-5.494164147104613
s(S'31031'
p1662
I1
tp1663
F-66.11131765764421
s(S'40302'
p1664
I0
tp1665
F9.90528892203215
s(S'02042'
p1666
I2
tp1667
F5.3515468062116
s(S'50002'
p1668
I0
tp1669
F-142.83466540684734
s(S'11101'
p1670
I1
tp1671
F-73.20497219998396
s(S'01612'
p1672
I2
tp1673
I1
s(S'01520'
p1674
I0
tp1675
F7.912408820984092
s(S'06000'
p1676
I1
tp1677
F-19.45119589362591
s(S'40101'
p1678
I2
tp1679
F-2.9250391931770956
s(S'10001'
p1680
I1
tp1681
F-2.3793152631414545
s(S'20115'
p1682
I0
tp1683
I5
s(S'02020'
p1684
I2
tp1685
F-2.585307219166468
s(S'11113'
p1686
I2
tp1687
F-5.773241607893415
s(S'14113'
p1688
I2
tp1689
F2.6601435101506192
s(S'00140'
p1690
I0
tp1691
F-2.9489965615781877
s(S'21400'
p1692
I1
tp1693
F-56.093992163314084
s(S'26000'
p1694
I0
tp1695
F-66.69657826820716
s(S'20818'
p1696
I2
tp1697
I1
s(S'02001'
p1698
I1
tp1699
F-168.96164238113042
s(S'11304'
p1700
I2
tp1701
F-5.556446702707162
s(S'51001'
p1702
I0
tp1703
I-200
s(S'01303'
p1704
I2
tp1705
F6.0312029038330675
s(S'01111'
p1706
I0
tp1707
F-3.665046522427449
s(S'14101'
p1708
I2
tp1709
F3.331258316704818
s(S'40020'
p1710
I1
tp1711
F4.5776662596265885
s(S'00303'
p1712
I1
tp1713
F7.029119333567218
s(S'32310'
p1714
I0
tp1715
F4.680921604401559
s(S'11132'
p1716
I0
tp1717
I-200
s(S'64000'
p1718
I1
tp1719
I-200
s(S'15140'
p1720
I2
tp1721
I1
s(S'00000'
p1722
I1
tp1723
F-59.080015597941745
s(S'20011'
p1724
I1
tp1725
F1.797343851801422
s(S'00523'
p1726
I1
tp1727
I1
s(S'05100'
p1728
I0
tp1729
F-8.88913669019696
s(S'01102'
p1730
I0
tp1731
F-6.58366775515899
s(S'12031'
p1732
I0
tp1733
F-89.61747750977361
s(S'11020'
p1734
I2
tp1735
F-59.8282882485401
s(S'23210'
p1736
I2
tp1737
F7.150320475773449
s(S'17073'
p1738
I1
tp1739
F1.3136
s(S'21113'
p1740
I2
tp1741
F-98.61192327121702
s(S'21131'
p1742
I0
tp1743
F7.434747623221268
s(S'03012'
p1744
I1
tp1745
F-3.5727502227667567
s(S'05111'
p1746
I0
tp1747
F-5.346270958175437
s(S'13213'
p1748
I0
tp1749
F-34.60346011176482
s(S'02204'
p1750
I1
tp1751
F-10.814153392074232
s(S'15202'
p1752
I1
tp1753
I1
s(S'30023'
p1754
I0
tp1755
F4.419725298003657
s(S'11001'
p1756
I1
tp1757
F-68.6008986815378
s(S'01012'
p1758
I1
tp1759
F-11.705335883539913
s(S'33200'
p1760
I2
tp1761
F5.923431562846728
s(S'22102'
p1762
I2
tp1763
F-3.7184759878592786
s(S'11301'
p1764
I2
tp1765
F4.534322624709957
s(S'33000'
p1766
I2
tp1767
F-29.2095741634984
s(S'42100'
p1768
I0
tp1769
F-50.17932900146099
s(S'01211'
p1770
I1
tp1771
F-3.6001125929279985
s(S'53020'
p1772
I1
tp1773
F6.066596106801813
s(S'12240'
p1774
I1
tp1775
F2.3353652821488464
s(S'12300'
p1776
I2
tp1777
F-6.346001692849326
s(S'11030'
p1778
I1
tp1779
F5.59805287112205
s(S'10425'
p1780
I1
tp1781
I1
s(S'03011'
p1782
I2
tp1783
F-59.657692728794245
s(S'16100'
p1784
I0
tp1785
F-6.8076356258037585
s(S'31202'
p1786
I1
tp1787
I1
s(S'10022'
p1788
I1
tp1789
I-200
s(S'22013'
p1790
I1
tp1791
F-3.8637042019713737
s(S'12102'
p1792
I0
tp1793
F-159.89411450523045
s(S'53011'
p1794
I1
tp1795
F-7.516503325526938
s(S'13140'
p1796
I2
tp1797
F0.5434504061342696
s(S'40211'
p1798
I1
tp1799
F3.4717273943164333
s(S'10114'
p1800
I0
tp1801
F-0.6632502576255548
s(S'11102'
p1802
I2
tp1803
F-68.34080260652334
s(S'14120'
p1804
I2
tp1805
F-0.88298069399967
s(S'13110'
p1806
I1
tp1807
F-11.62892771765964
s(S'30501'
p1808
I2
tp1809
F-0.9182332898163692
s(S'14140'
p1810
I1
tp1811
F5.507124601682964
s(S'40121'
p1812
I0
tp1813
F5.661661549704898
s(S'11421'
p1814
I0
tp1815
F-40.493462539512805
s(S'51100'
p1816
I0
tp1817
F-32.29609952982614
s(S'21600'
p1818
I1
tp1819
F-4.406592998015881
s(S'21230'
p1820
I1
tp1821
F5.0350286462917495
s(S'30041'
p1822
I2
tp1823
F-4.758535785397893
s(S'51410'
p1824
I1
tp1825
F-3.4385758040833068
s(S'10011'
p1826
I2
tp1827
F-86.13987864175424
s(S'10043'
p1828
I0
tp1829
F-68.64848063990925
s(S'33100'
p1830
I0
tp1831
F-6.39651148003998
s(S'02120'
p1832
I0
tp1833
F12.825960413034409
s(S'34000'
p1834
I1
tp1835
F-13.04670497711384
s(S'42021'
p1836
I2
tp1837
F-2.299274456926265
s(S'13004'
p1838
I2
tp1839
F-39.92603695957485
s(S'11404'
p1840
I2
tp1841
I-200
s(S'01003'
p1842
I2
tp1843
F-42.461124412098634
s(S'31300'
p1844
I1
tp1845
I-200
s(S'50010'
p1846
I1
tp1847
F3.286900826110887
s(S'30111'
p1848
I0
tp1849
F-41.40548788052592
s(S'03221'
p1850
I1
tp1851
F3.0825373858654928
s(S'00201'
p1852
I2
tp1853
F-20.032096226959624
s(S'40015'
p1854
I0
tp1855
F-10.776024467607908
s(S'15312'
p1856
I2
tp1857
I1
s(S'01011'
p1858
I2
tp1859
F-48.6354224929472
s(S'12410'
p1860
I0
tp1861
F-35.32841515782081
s(S'60301'
p1862
I1
tp1863
F7.046186761560493
s(S'12113'
p1864
I1
tp1865
F-8.10017148019129
s(S'11105'
p1866
I0
tp1867
F-0.9128860654049262
s(S'10132'
p1868
I0
tp1869
F-2.6568919705024694
s(S'13101'
p1870
I1
tp1871
F-16.42462142511371
s(S'11120'
p1872
I0
tp1873
F10.029643269925915
s(S'20111'
p1874
I1
tp1875
F2.8648840333746297
s(S'41000'
p1876
I1
tp1877
F-89.23581738871918
s(S'01120'
p1878
I2
tp1879
F6.700933163382513
s(S'10500'
p1880
I2
tp1881
F-4.524053584453714
s(S'20201'
p1882
I1
tp1883
F1.9405479705517852
s(S'11411'
p1884
I1
tp1885
F-38.60601263134333
s(S'20030'
p1886
I2
tp1887
F-5.3577048607929925
s(S'112511'
p1888
I0
tp1889
I5
s(S'12003'
p1890
I2
tp1891
I-200
s(S'62210'
p1892
I2
tp1893
F8.271128842646945
s(S'00124'
p1894
I2
tp1895
F-1.0813212068855869
s(S'00400'
p1896
I0
tp1897
F-5.036748075107711
s(S'10104'
p1898
I0
tp1899
F-5.478848905340763
s(S'30411'
p1900
I2
tp1901
F-37.50921189090701
s(S'10221'
p1902
I1
tp1903
F7.855107342845995
s(S'44120'
p1904
I1
tp1905
F3.8719162661432653
s(S'51302'
p1906
I2
tp1907
F1.9437604549662693
s(S'13020'
p1908
I0
tp1909
F-43.82138683734864
s(S'10305'
p1910
I0
tp1911
F6.148712345832217
s(S'03102'
p1912
I1
tp1913
F-4.371686441561231
s(S'11220'
p1914
I0
tp1915
F-3.068912994094318
s(S'22220'
p1916
I0
tp1917
F5.566394769957733
s(S'30211'
p1918
I2
tp1919
F-36.23456154821558
s(S'30120'
p1920
I1
tp1921
F5.4700200337002345
s(S'31102'
p1922
I2
tp1923
F-6.183906437458647
s(S'41111'
p1924
I2
tp1925
F-2.362617592891983
s(S'42000'
p1926
I2
tp1927
F-60.50736289285436
s(S'01014'
p1928
I2
tp1929
F2.725905902408408
s(S'25011'
p1930
I0
tp1931
I5
s(S'40022'
p1932
I1
tp1933
F1.9834036805254485
s(S'00023'
p1934
I1
tp1935
F6.313394991128931
s(S'30000'
p1936
I2
tp1937
F-153.81967430627105
s(S'31120'
p1938
I0
tp1939
F10.490247943168432
s(S'12120'
p1940
I2
tp1941
F-36.17261989531624
s(S'20500'
p1942
I2
tp1943
F1.102130840633068
s(S'41121'
p1944
I0
tp1945
F-0.13671546220274866
s(S'10062'
p1946
I1
tp1947
F3.180961925178632
s(S'31041'
p1948
I1
tp1949
I1
s(S'60000'
p1950
I1
tp1951
F-170.2239328341416
s(S'21401'
p1952
I2
tp1953
I-200
s(S'41121'
p1954
I1
tp1955
F2.774176856613541
s(S'04010'
p1956
I1
tp1957
F4.108826967171365
s(S'25138'
p1958
I0
tp1959
I5
s(S'31400'
p1960
I2
tp1961
F0.07996350290223297
s(S'01030'
p1962
I2
tp1963
F-0.17222745409311635
s(S'10125'
p1964
I2
tp1965
F3.302119989418978
s(S'13201'
p1966
I0
tp1967
F-33.31701799680912
s(S'21321'
p1968
I0
tp1969
F-42.62372802053205
s(S'21122'
p1970
I2
tp1971
F-39.630740279853455
s(S'00064'
p1972
I0
tp1973
I-200
s(S'01204'
p1974
I2
tp1975
F-35.45217415471248
s(S'20121'
p1976
I0
tp1977
F-2.6737463357770803
s(S'05001'
p1978
I0
tp1979
F-88.21470644472376
s(S'20312'
p1980
I0
tp1981
F6.153757709229225
s(S'22112'
p1982
I2
tp1983
F-7.533339050788326
s(S'14100'
p1984
I1
tp1985
F-47.221213382033454
s(S'34310'
p1986
I1
tp1987
I1
s(S'11301'
p1988
I1
tp1989
F-118.88250913994781
s(S'50211'
p1990
I0
tp1991
F-29.405227924170667
s(S'12130'
p1992
I1
tp1993
F6.068131367132239
s(S'34100'
p1994
I0
tp1995
F-1.749959746853814
s(S'31015'
p1996
I2
tp1997
F-2.181200241584245
s(S'01432'
p1998
I2
tp1999
F7.31951748480706
s(S'60002'
p2000
I1
tp2001
F-105.2008949978144
s(S'10101'
p2002
I1
tp2003
F-4.226919188846349
s(S'10051'
p2004
I2
tp2005
F-36.24981121070564
s(S'30100'
p2006
I0
tp2007
F-44.864843858977665
s(S'12110'
p2008
I2
tp2009
F6.8096116819555546
s(S'[2, 4, 1, 0, 0]False'
p2010
I2
tp2011
I1
s(S'20610'
p2012
I0
tp2013
F9.17651866499674
s(S'30401'
p2014
I0
tp2015
F-31.748963915027986
s(S'00043'
p2016
I0
tp2017
F-46.93697334479136
s(S'11112'
p2018
I2
tp2019
F-56.94332347106184
s(S'32002'
p2020
I2
tp2021
F-154.392332927796
s(S'13020'
p2022
I2
tp2023
F-4.210400710627659
s(S'11212'
p2024
I1
tp2025
F-5.578991862072855
s(S'00240'
p2026
I2
tp2027
F7.607005546280919
s(S'02104'
p2028
I0
tp2029
F-25.978784056850728
s(S'12004'
p2030
I1
tp2031
F-59.70527232895843
s(S'03101'
p2032
I0
tp2033
F-6.144693861254401
s(S'40002'
p2034
I0
tp2035
F-51.341052822383205
s(S'61002'
p2036
I0
tp2037
I-200
s(S'14002'
p2038
I2
tp2039
F-18.10461118196282
s(S'12014'
p2040
I0
tp2041
F-24.341260806871254
s(S'00010'
p2042
I2
tp2043
F4.49039683877025
s(S'21013'
p2044
I1
tp2045
F-1.6942656793518291
s(S'00032'
p2046
I0
tp2047
F-112.98556890338917
s(S'41100'
p2048
I0
tp2049
F-18.108300106586032
s(S'02232'
p2050
I0
tp2051
F5.724739860251463
s(S'04310'
p2052
I0
tp2053
F-0.2342110354949576
s(S'10114'
p2054
I2
tp2055
F-1.602360831628886
s(S'40125'
p2056
I0
tp2057
F5.1990742789196975
s(S'11501'
p2058
I2
tp2059
F1.7214160753046621
s(S'10023'
p2060
I2
tp2061
F-0.10807994351091388
s(S'04000'
p2062
I1
tp2063
F-19.5748364268306
s(S'23013'
p2064
I0
tp2065
F-35.035271052570835
s(S'00006'
p2066
I1
tp2067
F-12.41332181907802
s(S'01203'
p2068
I0
tp2069
F-6.39457273598509
s(S'00343'
p2070
I0
tp2071
F10.007664740329236
s(S'61500'
p2072
I0
tp2073
I5
s(S'50000'
p2074
I0
tp2075
F-236.56941159751415
s(S'11511'
p2076
I1
tp2077
F-41.46896969725927
s(S'11103'
p2078
I1
tp2079
F-26.380149058135043
s(S'50028'
p2080
I2
tp2081
I1
s(S'00411'
p2082
I2
tp2083
F-31.589855768961147
s(S'11430'
p2084
I2
tp2085
F-4.4554444015562495
s(S'22000'
p2086
I0
tp2087
F-203.8010235762117
s(S'11322'
p2088
I0
tp2089
F11.687702305955044
s(S'21331'
p2090
I0
tp2091
F-2.860239112323459
s(S'06321'
p2092
I2
tp2093
I1
s(S'14041'
p2094
I0
tp2095
F-161.1002402708611
s(S'00211'
p2096
I0
tp2097
F10.763270781780085
s(S'50400'
p2098
I0
tp2099
F2.6788910536254305
s(S'01005'
p2100
I2
tp2101
F-0.784375234719686
s(S'02003'
p2102
I1
tp2103
F-14.01239615716145
s(S'40014'
p2104
I2
tp2105
F-7.996246036308413
s(S'40311'
p2106
I2
tp2107
F-34.338633399148506
s(S'15300'
p2108
I0
tp2109
F-33.74409544824701
s(S'00045'
p2110
I0
tp2111
F-7.292449845292347
s(S'04041'
p2112
I1
tp2113
F-53.27765898467799
s(S'30110'
p2114
I1
tp2115
F6.030055148991309
s(S'00305'
p2116
I1
tp2117
F6.4633309272826365
s(S'21141'
p2118
I1
tp2119
F-1.811673548387958
s(S'03010'
p2120
I2
tp2121
F-25.240954060142688
s(S'35010'
p2122
I1
tp2123
F3.204530311865268
s(S'40014'
p2124
I1
tp2125
F-41.640740198584105
s(S'10320'
p2126
I2
tp2127
F6.935163763050997
s(S'00102'
p2128
I1
tp2129
F-10.086001427043865
s(S'50302'
p2130
I1
tp2131
F6.250005775298456
s(S'11141'
p2132
I1
tp2133
F-38.75843082992533
s(S'63210'
p2134
I0
tp2135
F12.473320580219507
s(S'00312'
p2136
I1
tp2137
F8.793212639932179
s(S'10301'
p2138
I1
tp2139
F5.221127799658902
s(S'43200'
p2140
I1
tp2141
F5.714348595967759
s(S'21020'
p2142
I2
tp2143
F-26.47380613856451
s(S'12210'
p2144
I0
tp2145
F-13.697986956844547
s(S'30500'
p2146
I2
tp2147
F5.4600407277182175
s(S'01031'
p2148
I2
tp2149
F-1.268576651960803
s(S'30021'
p2150
I0
tp2151
F-7.461411018330819
s(S'11003'
p2152
I1
tp2153
F-17.45515178958298
s(S'01010'
p2154
I1
tp2155
F0.860577396344774
s(S'52100'
p2156
I2
tp2157
F-46.39092045535324
s(S'20300'
p2158
I0
tp2159
F-32.73746308355196
s(S'11512'
p2160
I0
tp2161
I5
s(S'15111'
p2162
I0
tp2163
F-4.694977314865368
s(S'04111'
p2164
I0
tp2165
F-4.859568998544934
s(S'00114'
p2166
I2
tp2167
F-34.56012906683773
s(S'30041'
p2168
I1
tp2169
F-45.407117525503416
s(S'10105'
p2170
I1
tp2171
F-0.7900497272199614
s(S'20110'
p2172
I2
tp2173
F5.912443248429128
s(S'31003'
p2174
I0
tp2175
F-56.67029664302576
s(S'00521'
p2176
I0
tp2177
F13.898975266520761
s(S'11504'
p2178
I0
tp2179
F-34.26418518830675
s(S'10010'
p2180
I2
tp2181
F4.94250485300468
s(S'01231'
p2182
I0
tp2183
F12.344788244270509
s(S'20200'
p2184
I2
tp2185
F-34.86778008704155
s(S'10610'
p2186
I2
tp2187
F2.3391804304283004
s(S'40004'
p2188
I0
tp2189
F-70.21724392755883
s(S'20131'
p2190
I1
tp2191
F-1.4064565131943647
s(S'02004'
p2192
I1
tp2193
F-12.727535988194319
s(S'12104'
p2194
I0
tp2195
F-37.828758577035714
s(S'00015'
p2196
I2
tp2197
F-12.482830347515595
s(S'10044'
p2198
I0
tp2199
F-9.356582401042823
s(S'00005'
p2200
I2
tp2201
F-136.721791935993
s(S'20221'
p2202
I1
tp2203
F4.937520522193444
s(S'[0, 2, 1, 0, 0]False'
p2204
I1
tp2205
F-2.0478941503904116
s(S'61819'
p2206
I1
tp2207
I1
s(S'22401'
p2208
I0
tp2209
I5
s(S'03200'
p2210
I1
tp2211
F-31.595538718945917
s(S'00162'
p2212
I0
tp2213
I5
s(S'10004'
p2214
I2
tp2215
F-76.12903386556764
s(S'00200'
p2216
I2
tp2217
F5.821570760437676
s(S'00431'
p2218
I1
tp2219
F7.532744531141369
s(S'14301'
p2220
I0
tp2221
F-6.470694234070459
s(S'11311'
p2222
I1
tp2223
F-40.7280121688304
s(S'10241'
p2224
I1
tp2225
F7.378350806407638
s(S'60001'
p2226
I0
tp2227
I-200
s(S'40123'
p2228
I0
tp2229
F5.16
s(S'51300'
p2230
I1
tp2231
F-2.5450202715338186
s(S'74000'
p2232
I1
tp2233
F-2.45663476702196
s(S'00022'
p2234
I2
tp2235
F-44.40015245508327
s(S'23300'
p2236
I1
tp2237
F-38.605103127800135
s(S'01252'
p2238
I2
tp2239
F2.4646629594362865
s(S'01060'
p2240
I0
tp2241
I5
s(S'10041'
p2242
I0
tp2243
F-89.59442137167154
s(S'01415'
p2244
I1
tp2245
F5.229427900927841
s(S'00306'
p2246
I2
tp2247
I1
s(S'22211'
p2248
I0
tp2249
F11.067111846932416
s(S'11004'
p2250
I1
tp2251
F-47.84964432541278
s(S'00432'
p2252
I2
tp2253
F7.7577197821713275
s(S'20031'
p2254
I2
tp2255
F-51.527170488938815
s(S'01514'
p2256
I0
tp2257
F7.860681880878078
s(S'81736'
p2258
I0
tp2259
I5
s(S'11042'
p2260
I1
tp2261
F-2.002507107397909
s(S'11012'
p2262
I0
tp2263
F-49.40278666890859
s(S'00063'
p2264
I2
tp2265
F-38.459496944837774
s(S'10200'
p2266
I1
tp2267
F-35.51826685333811
s(S'31302'
p2268
I1
tp2269
F0.2712197086213606
s(S'10152'
p2270
I1
tp2271
F4.837666375836996
s(S'61013'
p2272
I0
tp2273
F2.418882827475043
s(S'14012'
p2274
I2
tp2275
F0.5064987219950873
s(S'30210'
p2276
I2
tp2277
F6.5095021875880805
s(S'00261'
p2278
I1
tp2279
I1
s(S'02201'
p2280
I2
tp2281
F4.433258464429301
s(S'00132'
p2282
I2
tp2283
F-6.2557652623925595
s(S'52001'
p2284
I0
tp2285
F-63.303155179042626
s(S'03213'
p2286
I2
tp2287
F2.0477821963089253
s(S'00002'
p2288
I0
tp2289
F-157.80543576056553
s(S'33011'
p2290
I0
tp2291
I5
s(S'02040'
p2292
I1
tp2293
F2.0256645308761647
s(S'70001'
p2294
I2
tp2295
I-200
s(S'10036'
p2296
I2
tp2297
F-13.99447702426394
s(S'41400'
p2298
I2
tp2299
F-3.7037183145990182
s(S'50004'
p2300
I1
tp2301
F-37.19839034755552
s(S'12111'
p2302
I1
tp2303
F-1.500799275447395
s(S'30001'
p2304
I2
tp2305
F-169.34636108664554
s(S'10130'
p2306
I0
tp2307
F-4.413448992835935
s(S'17083'
p2308
I0
tp2309
F5.0
s(S'10003'
p2310
I0
tp2311
F-125.727735931505
s(S'30221'
p2312
I2
tp2313
F-3.291079470267109
s(S'02022'
p2314
I1
tp2315
I1
s(S'41002'
p2316
I1
tp2317
F-84.58327762453771
s(S'32031'
p2318
I2
tp2319
F-1.1822173306378994
s(S'30013'
p2320
I1
tp2321
F-0.2894131742960733
s(S'14111'
p2322
I1
tp2323
F-66.24805941898629
s(S'10315'
p2324
I1
tp2325
F1.0
s(S'00142'
p2326
I1
tp2327
F-38.24305637689106
s(S'32101'
p2328
I0
tp2329
F-7.914184848711951
s(S'11424'
p2330
I2
tp2331
I1
s(S'00060'
p2332
I2
tp2333
F-1.9230718210078708
s(S'00104'
p2334
I0
tp2335
F-19.337661954996296
s(S'61210'
p2336
I2
tp2337
F9.470538216904638
s(S'10141'
p2338
I2
tp2339
F4.735210170568312
s(S'31111'
p2340
I2
tp2341
F0.17609115333380068
s(S'13311'
p2342
I2
tp2343
F4.25243934408386
s(S'04121'
p2344
I1
tp2345
F2.6196496696978198
s(S'21012'
p2346
I2
tp2347
F-17.306661070411995
s(S'00314'
p2348
I2
tp2349
F5.24544502638225
s(S'00301'
p2350
I0
tp2351
F12.00554456613552
s(S'21211'
p2352
I2
tp2353
F-106.49722151310894
s(S'14200'
p2354
I2
tp2355
I-200
s(S'24001'
p2356
I0
tp2357
F-17.932714259607344
s(S'01310'
p2358
I2
tp2359
F9.443343323514725
s(S'11040'
p2360
I1
tp2361
F7.816333783051758
s(S'20013'
p2362
I0
tp2363
F-82.13833687187014
s(S'30302'
p2364
I0
tp2365
F8.492775685274927
s(S'31132'
p2366
I2
tp2367
I1
s(S'01332'
p2368
I0
tp2369
F10.602342474472348
s(S'00017'
p2370
I1
tp2371
I1
s(S'37362'
p2372
I1
tp2373
I1
s(S'11510'
p2374
I2
tp2375
F-1.5057613093609366
s(S'10050'
p2376
I2
tp2377
F3.393650500665453
s(S'11022'
p2378
I1
tp2379
F-6.617312639089227
s(S'21111'
p2380
I1
tp2381
F-134.1685725835256
s(S'90718'
p2382
I1
tp2383
I1
s(S'51115'
p2384
I2
tp2385
F-10.870431630512675
s(S'23100'
p2386
I1
tp2387
F-48.450497945139595
s(S'21103'
p2388
I2
tp2389
F-44.58430107381989
s(S'04301'
p2390
I0
tp2391
F7.694443633555191
s(S'21031'
p2392
I2
tp2393
F-38.11873423139141
s(S'50112'
p2394
I2
tp2395
F0.15658027587935175
s(S'02002'
p2396
I2
tp2397
F-11.240111558849915
s(S'25110'
p2398
I1
tp2399
F-9.980422952312136
s(S'11303'
p2400
I1
tp2401
F-69.28835727183095
s(S'11160'
p2402
I1
tp2403
I-200
s(S'14021'
p2404
I0
tp2405
F-35.3536333933903
s(S'00011'
p2406
I2
tp2407
F-154.58248503365834
s(S'21200'
p2408
I2
tp2409
F0.334325458941806
s(S'22301'
p2410
I0
tp2411
F0.023758454060540224
s(S'11500'
p2412
I1
tp2413
F-60.325563007789626
s(S'21140'
p2414
I2
tp2415
I1
s(S'12132'
p2416
I1
tp2417
F-17.42749638356364
s(S'10115'
p2418
I2
tp2419
F3.8339934285721124
s(S'31200'
p2420
I0
tp2421
F-41.379451625262156
s(S'22011'
p2422
I0
tp2423
F-38.84184312473514
s(S'13041'
p2424
I0
tp2425
I-200
s(S'11600'
p2426
I0
tp2427
F3.9654259492725394
s(S'26100'
p2428
I2
tp2429
F-3.2193857005554998
s(S'42011'
p2430
I2
tp2431
F-3.347482954207067
s(S'35010'
p2432
I2
tp2433
F-2.852212769748642
s(S'02012'
p2434
I1
tp2435
F-2.368976161686491
s(S'30102'
p2436
I0
tp2437
F-5.896391337883298
s(S'41020'
p2438
I0
tp2439
F8.441128467176798
s(S'40100'
p2440
I2
tp2441
F5.647577665101107
s(S'00036'
p2442
I0
tp2443
I-200
s(S'52311'
p2444
I0
tp2445
F7.197396803542684
s(S'02021'
p2446
I2
tp2447
F-19.453161846592216
s(S'11431'
p2448
I2
tp2449
F-11.237825095073664
s(S'00041'
p2450
I0
tp2451
F-100.61954038624852
s(S'20600'
p2452
I1
tp2453
F-36.81400592977262
s(S'44021'
p2454
I2
tp2455
I1
s(S'11002'
p2456
I2
tp2457
F-87.45936860161254
s(S'20051'
p2458
I1
tp2459
F-0.5020063678229367
s(S'42220'
p2460
I0
tp2461
F8.397050526823454
s(S'11423'
p2462
I1
tp2463
I1
s(S'13001'
p2464
I1
tp2465
F-146.7299809252933
s(S'40000'
p2466
I0
tp2467
F-194.32597258239122
s(S'15311'
p2468
I2
tp2469
F2.9211720037223166
s(S'01333'
p2470
I1
tp2471
F2.2557634033282206
s(S'34100'
p2472
I2
tp2473
F-1.2864229929373616
s(S'13011'
p2474
I2
tp2475
F-65.24974929143806
s(S'[1, 2, 1, 1, 0]False'
p2476
I2
tp2477
F-0.1625570689870266
s(S'45110'
p2478
I1
tp2479
F8.788301645829172
s(S'00116'
p2480
I2
tp2481
F-9.15588557020212
s(S'51112'
p2482
I0
tp2483
F5.452714610599789
s(S'33100'
p2484
I1
tp2485
F-9.975222221009812
s(S'21015'
p2486
I1
tp2487
F-20.36591513096806
s(S'00030'
p2488
I0
tp2489
F-30.091155579884568
s(S'41102'
p2490
I0
tp2491
F-11.724701344614092
s(S'00324'
p2492
I1
tp2493
F7.8780933381452325
s(S'02122'
p2494
I1
tp2495
F-6.521857677642753
s(S'24100'
p2496
I2
tp2497
F-1.2108607697547142
s(S'11201'
p2498
I1
tp2499
F-65.67415309830483
s(S'15001'
p2500
I2
tp2501
F-37.722166522055254
s(S'05220'
p2502
I2
tp2503
I1
s(S'04202'
p2504
I2
tp2505
F5.463392469686092
s(S'12103'
p2506
I0
tp2507
F-12.81200911480077
s(S'00004'
p2508
I1
tp2509
F-66.47266318469556
s(S'01201'
p2510
I0
tp2511
F-42.72607396518449
s(S'01001'
p2512
I1
tp2513
F-26.375043342200147
s(S'00422'
p2514
I1
tp2515
F-33.47747367821968
s(S'53100'
p2516
I2
tp2517
F-6.923006805955149
s(S'21430'
p2518
I0
tp2519
F-4.443809537227043
s(S'01311'
p2520
I1
tp2521
F-0.20701818282211448
s(S'11021'
p2522
I2
tp2523
F-8.597098154983001
s(S'01524'
p2524
I0
tp2525
I5
s(S'30011'
p2526
I0
tp2527
F1.555225243652926
s(S'20150'
p2528
I1
tp2529
F6.413828362330647
s(S'22002'
p2530
I0
tp2531
F-35.890069550647794
s(S'21021'
p2532
I2
tp2533
F-18.260455320603327
s(S'30015'
p2534
I0
tp2535
F-69.49388975070448
s(S'02031'
p2536
I0
tp2537
F1.202213489526678
s(S'02013'
p2538
I2
tp2539
F-10.067102163075422
s(S'31131'
p2540
I2
tp2541
F-6.668810115440042
s(S'53000'
p2542
I0
tp2543
F-58.65785414200159
s(S'51121'
p2544
I1
tp2545
F-1.5852572030528025
s(S'60011'
p2546
I2
tp2547
F-51.415295092809174
s(S'11300'
p2548
I2
tp2549
F4.4151445226399915
s(S'61300'
p2550
I2
tp2551
F6.348424065522746
s(S'13030'
p2552
I0
tp2553
F-36.60575742512249
s(S'43100'
p2554
I2
tp2555
F-39.93949650307294
s(S'11230'
p2556
I0
tp2557
F-39.4380023884402
s(S'13103'
p2558
I0
tp2559
F-12.5755952795588
s(S'00414'
p2560
I0
tp2561
F10.967836243683186
s(S'22611'
p2562
I0
tp2563
I5
s(S'20001'
p2564
I2
tp2565
F-175.8761507969545
s(S'12001'
p2566
I1
tp2567
F-136.32109338296348
s(S'21611'
p2568
I2
tp2569
F2.0884437178889312
s(S'00411'
p2570
I1
tp2571
F9.682990881712186
s(S'00100'
p2572
I1
tp2573
F-43.62005501816951
s(S'23111'
p2574
I1
tp2575
F0.5718336806638965
s(S'02300'
p2576
I1
tp2577
F-1.2012953116422203
s(S'00062'
p2578
I1
tp2579
F-158.65099193246127
s(S'12013'
p2580
I2
tp2581
F-13.240430361448894
s(S'50210'
p2582
I0
tp2583
F10.388783580105754
s(S'16030'
p2584
I1
tp2585
F3.22661608615379
s(S'11024'
p2586
I2
tp2587
F1.5106435185168863
s(S'00310'
p2588
I1
tp2589
F7.237760597033539
s(S'06100'
p2590
I1
tp2591
F-9.275339869133283
s(S'04100'
p2592
I0
tp2593
F-7.547913894531795
s(S'43010'
p2594
I0
tp2595
F-2.1285612403294927
s(S'21002'
p2596
I1
tp2597
F-103.80180891201603
s(S'12021'
p2598
I0
tp2599
I-200
s(S'02200'
p2600
I1
tp2601
F-38.55471804227624
s(S'06110'
p2602
I0
tp2603
F5.986038377662689
s(S'41113'
p2604
I1
tp2605
F2.108931896896408
s(S'32231'
p2606
I2
tp2607
F-2.1220500839990546
s(S'06120'
p2608
I2
tp2609
F2.833798811568998
s(S'32200'
p2610
I2
tp2611
F8.757126295933054
s(S'03040'
p2612
I2
tp2613
F3.093867651490891
s(S'12122'
p2614
I1
tp2615
F-10.68713925027878
s(S'21115'
p2616
I0
tp2617
F-15.87799897001107
s(S'31001'
p2618
I0
tp2619
F-120.67211512706793
s(S'41003'
p2620
I2
tp2621
I-200
s(S'32030'
p2622
I1
tp2623
F4.5470393841510885
s(S'00523'
p2624
I0
tp2625
F-26.700296789468446
s(S'10402'
p2626
I0
tp2627
F8.172187594300059
s(S'21121'
p2628
I1
tp2629
F-3.3396427657973957
s(S'00216'
p2630
I2
tp2631
F4.564703365719935
s(S'00523'
p2632
I2
tp2633
F9.124382710015
s(S'31030'
p2634
I1
tp2635
F5.848051753919794
s(S'26110'
p2636
I0
tp2637
F-16.19474932217566
s(S'31510'
p2638
I2
tp2639
F1.9756448317871995
s(S'03001'
p2640
I2
tp2641
F-82.52840377541833
s(S'10140'
p2642
I1
tp2643
F-0.7657807582008864
s(S'15302'
p2644
I0
tp2645
I5
s(S'40114'
p2646
I0
tp2647
F-3.660200932504788
s(S'01002'
p2648
I2
tp2649
F-117.50600408781015
s(S'22110'
p2650
I1
tp2651
F3.3370618235609673
s(S'14102'
p2652
I0
tp2653
F-9.541278655108211
s(S'03202'
p2654
I1
tp2655
F4.571823658040402
s(S'50100'
p2656
I0
tp2657
F-20.658234154896846
s(S'50202'
p2658
I0
tp2659
F6.36636441052229
s(S'50013'
p2660
I2
tp2661
F-30.439520785487126
s(S'60000'
p2662
I0
tp2663
F-163.88131707410824
s(S'23001'
p2664
I1
tp2665
F-11.408649671171872
s(S'00602'
p2666
I1
tp2667
F8.509237107884575
s(S'32002'
p2668
I0
tp2669
F-160.91746929974107
s(S'00322'
p2670
I2
tp2671
F-0.03892539440255671
s(S'00111'
p2672
I2
tp2673
F-35.90128115440925
s(S'30101'
p2674
I0
tp2675
F6.468326314833505
s(S'02132'
p2676
I1
tp2677
F1.4558645522316853
s(S'01401'
p2678
I2
tp2679
F7.186222896200048
s(S'02311'
p2680
I2
tp2681
F-2.743467824138228
s(S'51114'
p2682
I1
tp2683
F1.164623112032788
s(S'15011'
p2684
I2
tp2685
F-5.361151004752107
s(S'40201'
p2686
I0
tp2687
F-30.177884517638372
s(S'00045'
p2688
I1
tp2689
F-39.9575533862926
s(S'30110'
p2690
I2
tp2691
F-8.366099103427818
s(S'40031'
p2692
I1
tp2693
F-5.323350147670041
s(S'11006'
p2694
I1
tp2695
F-13.839211373049364
s(S'33210'
p2696
I2
tp2697
F5.167454273610605
s(S'12050'
p2698
I0
tp2699
F-78.95212730715909
s(S'12002'
p2700
I2
tp2701
F-8.76296685750157
s(S'03103'
p2702
I1
tp2703
F-2.1331552935855322
s(S'11010'
p2704
I0
tp2705
F6.953577284515549
s(S'31110'
p2706
I2
tp2707
F4.705226940819611
s(S'12221'
p2708
I2
tp2709
F1.635966125982331
s(S'00515'
p2710
I2
tp2711
F-31.96096983947671
s(S'30002'
p2712
I2
tp2713
F-92.60999681109337
s(S'40101'
p2714
I1
tp2715
F-0.25079548236972715
s(S'14201'
p2716
I2
tp2717
F3.1537105809790877
s(S'10021'
p2718
I1
tp2719
F1.9470757308677458
s(S'31100'
p2720
I2
tp2721
F-37.10736401140515
s(S'41110'
p2722
I2
tp2723
F-37.258153243695574
s(S'01015'
p2724
I2
tp2725
F1.3678721521657715
s(S'31031'
p2726
I0
tp2727
F-73.80817920629923
s(S'13111'
p2728
I2
tp2729
F-6.464075830026712
s(S'20213'
p2730
I2
tp2731
F1.9105717925536152
s(S'20144'
p2732
I1
tp2733
I1
s(S'11160'
p2734
I0
tp2735
F-58.789371216517985
s(S'40002'
p2736
I2
tp2737
F-75.67850142300135
s(S'50002'
p2738
I1
tp2739
F-37.41137503600197
s(S'01020'
p2740
I0
tp2741
F5.691940008492901
s(S'11101'
p2742
I0
tp2743
F-12.571342226970026
s(S'20210'
p2744
I2
tp2745
F-34.9043194417556
s(S'06000'
p2746
I0
tp2747
F-85.51929455721859
s(S'12121'
p2748
I2
tp2749
F-36.66739467821243
s(S'10001'
p2750
I0
tp2751
F-123.23348855154843
s(S'03022'
p2752
I0
tp2753
F6.832380095212291
s(S'00430'
p2754
I1
tp2755
F8.287314488179618
s(S'[0, 2, 1, 1, 0]False'
p2756
I1
tp2757
F-7.417534638118113
s(S'30011'
p2758
I1
tp2759
F-45.63811223861831
s(S'00140'
p2760
I1
tp2761
F6.903939284974994
s(S'21400'
p2762
I2
tp2763
F5.004231020951819
s(S'21102'
p2764
I2
tp2765
F-151.03800295162563
s(S'13120'
p2766
I2
tp2767
F3.397024655110329
s(S'31401'
p2768
I2
tp2769
F4.081001239299503
s(S'11320'
p2770
I2
tp2771
F5.873298958344174
s(S'10150'
p2772
I2
tp2773
F-3.011946612885107
s(S'34000'
p2774
I0
tp2775
I-200
s(S'60003'
p2776
I2
tp2777
F-25.17690067081843
s(S'12150'
p2778
I2
tp2779
F-7.42838295756832
s(S'51001'
p2780
I1
tp2781
F-39.20202156619159
s(S'14022'
p2782
I1
tp2783
F-0.30278249543177305
s(S'12200'
p2784
I0
tp2785
F-78.07050956611018
s(S'22113'
p2786
I2
tp2787
F1.7473567885042316
s(S'21201'
p2788
I2
tp2789
F4.168391449883381
s(S'44011'
p2790
I1
tp2791
F-3.3422832929509374
s(S'40020'
p2792
I0
tp2793
F-41.32049439919657
s(S'60401'
p2794
I0
tp2795
F6.478715204567464
s(S'02113'
p2796
I2
tp2797
F-3.7950678249389034
s(S'41301'
p2798
I2
tp2799
F1.747435427872741
s(S'64000'
p2800
I0
tp2801
F-35.84
s(S'90818'
p2802
I0
tp2803
I5
s(S'00050'
p2804
I0
tp2805
F6.279833776443306
s(S'20011'
p2806
I0
tp2807
F-84.1283463869083
s(S'11401'
p2808
I0
tp2809
F-93.06610055053503
s(S'50300'
p2810
I0
tp2811
F10.582713714317828
s(S'00501'
p2812
I0
tp2813
F12.1477211514691
s(S'12031'
p2814
I1
tp2815
F-3.733713366740286
s(S'30004'
p2816
I2
tp2817
F-46.52533125738634
s(S'11020'
p2818
I1
tp2819
F4.433578064030152
s(S'45011'
p2820
I1
tp2821
F-2.5762201467674757
s(S'21113'
p2822
I1
tp2823
F-95.47812796176413
s(S'12321'
p2824
I1
tp2825
F3.3624068016970488
s(S'01022'
p2826
I0
tp2827
F7.447868323801052
s(S'02204'
p2828
I0
tp2829
F-10.982742298757188
s(S'11503'
p2830
I1
tp2831
F-0.22156696152049915
s(S'01012'
p2832
I0
tp2833
F2.651412668534808
s(S'10015'
p2834
I1
tp2835
F-4.150289870435981
s(S'10121'
p2836
I2
tp2837
F-70.42476637205732
s(S'20302'
p2838
I1
tp2839
F-2.364831956621548
s(S'00500'
p2840
I2
tp2841
F6.147477062302315
s(S'30230'
p2842
I2
tp2843
F5.451181499864317
s(S'42100'
p2844
I1
tp2845
F-29.458270753691554
s(S'00416'
p2846
I0
tp2847
F7.698465286163637
s(S'20112'
p2848
I1
tp2849
F1.579297677945749
s(S'00060'
p2850
I0
tp2851
F6.937350004801486
s(S'50211'
p2852
I1
tp2853
F-36.423080168408255
s(S'32004'
p2854
I0
tp2855
F-41.7204321664172
s(S'73000'
p2856
I0
tp2857
I5
s(S'13050'
p2858
I0
tp2859
F-59.30241707426154
s(S'10406'
p2860
I1
tp2861
I1
s(S'50011'
p2862
I0
tp2863
F-87.50013046633049
s(S'15000'
p2864
I2
tp2865
F-75.95711590225591
s(S'10022'
p2866
I2
tp2867
F0.4380571914915612
s(S'22013'
p2868
I0
tp2869
F-4.626762810142287
s(S'00151'
p2870
I2
tp2871
F-1.4473956941696677
s(S'00101'
p2872
I2
tp2873
F-6.840291704395925
s(S'10412'
p2874
I0
tp2875
F11.26897935759521
s(S'20006'
p2876
I0
tp2877
I-200
s(S'53011'
p2878
I0
tp2879
F0.15523928028214495
s(S'45011'
p2880
I0
tp2881
F-45.736827803794085
s(S'40211'
p2882
I0
tp2883
F-33.68890823933272
s(S'30111'
p2884
I1
tp2885
F-38.57832537588751
s(S'31201'
p2886
I2
tp2887
F-35.648667263892946
s(S'00160'
p2888
I1
tp2889
F6.804969113789654
s(S'40015'
p2890
I1
tp2891
F-38.80137781634651
s(S'01302'
p2892
I2
tp2893
F-5.107546630315916
s(S'11050'
p2894
I0
tp2895
F8.754233922857278
s(S'11421'
p2896
I1
tp2897
F-6.4642564830708436
s(S'02100'
p2898
I0
tp2899
F-93.19097690871517
s(S'51100'
p2900
I1
tp2901
F-19.020252648082177
s(S'00020'
p2902
I1
tp2903
F-6.996893926336809
s(S'10024'
p2904
I1
tp2905
F1.937278683108558
s(S'25200'
p2906
I0
tp2907
F6.776941988697604
s(S'21230'
p2908
I0
tp2909
F-10.086872861590475
s(S'51110'
p2910
I0
tp2911
F-0.9503027719847061
s(S'00014'
p2912
I2
tp2913
F-100.61760131212556
s(S'51410'
p2914
I2
tp2915
F7.322310816347641
s(S'10061'
p2916
I1
tp2917
F3.3092362848577954
s(S'20000'
p2918
I2
tp2919
F-169.1997956723012
s(S'51200'
p2920
I2
tp2921
F-44.845553622430494
s(S'02411'
p2922
I0
tp2923
F12.171863093000072
s(S'32010'
p2924
I1
tp2925
F8.11638460785962
s(S'10321'
p2926
I2
tp2927
F6.5261991449454015
s(S'61100'
p2928
I0
tp2929
F-35.951658629203
s(S'01003'
p2930
I1
tp2931
F-19.773567503998034
s(S'01531'
p2932
I0
tp2933
F11.955633716654093
s(S'12012'
p2934
I2
tp2935
F-10.526662104940673
s(S'30201'
p2936
I2
tp2937
F2.7737259301036015
s(S'14010'
p2938
I1
tp2939
F2.763607498148052
s(S'03400'
p2940
I0
tp2941
F-0.5693135029041341
s(S'11312'
p2942
I2
tp2943
F6.535193154377485
s(S'10102'
p2944
I1
tp2945
F-16.672066713545718
s(S'43021'
p2946
I1
tp2947
I1
s(S'13014'
p2948
I2
tp2949
F-0.4829410854428833
s(S'12113'
p2950
I0
tp2951
F-0.9346346847600926
s(S'01130'
p2952
I0
tp2953
F-27.244742026151062
s(S'10132'
p2954
I1
tp2955
F-2.8130047978038206
s(S'13101'
p2956
I0
tp2957
F-8.190255792433849
s(S'13301'
p2958
I1
tp2959
F-35.47393648063164
s(S'11120'
p2960
I1
tp2961
F-43.94959901855565
s(S'20111'
p2962
I2
tp2963
F-38.697157868755596
s(S'31041'
p2964
I0
tp2965
I-200
s(S'00044'
p2966
I2
tp2967
F-98.14790749838444
s(S'01120'
p2968
I1
tp2969
F2.639135673595575
s(S'20201'
p2970
I2
tp2971
F-33.84720875022239
s(S'11411'
p2972
I0
tp2973
F-35.18460035968209
s(S'11211'
p2974
I1
tp2975
F-19.20070139593247
s(S'15101'
p2976
I0
tp2977
F-8.81977347040435
s(S'22300'
p2978
I1
tp2979
I-200
s(S'00220'
p2980
I1
tp2981
F-60.82869125124357
s(S'12003'
p2982
I1
tp2983
F-9.718879314577874
s(S'13003'
p2984
I2
tp2985
F-84.05075235410601
s(S'41120'
p2986
I0
tp2987
F8.794678797668134
s(S'11203'
p2988
I2
tp2989
F-69.02438849881197
s(S'10331'
p2990
I0
tp2991
F3.7552752454982263
s(S'00451'
p2992
I0
tp2993
F13.745339698649786
s(S'10203'
p2994
I2
tp2995
F5.778370732046185
s(S'10221'
p2996
I0
tp2997
F-29.89492076357731
s(S'60100'
p2998
I2
tp2999
F7.321525164810799
s(S'00500'
p3000
I1
tp3001
F-2.9579075705214555
s(S'00440'
p3002
I2
tp3003
F9.754239867463015
s(S'21010'
p3004
I1
tp3005
F6.593317026700536
s(S'41210'
p3006
I0
tp3007
I-200
s(S'51010'
p3008
I2
tp3009
F1.5556734889706174
s(S'41111'
p3010
I1
tp3011
F3.460165577337342
s(S'00054'
p3012
I1
tp3013
F2.3396639656419924
s(S'13222'
p3014
I1
tp3015
F3.570453506289112
s(S'38381'
p3016
I1
tp3017
I1
s(S'01014'
p3018
I1
tp3019
F-11.088984597075449
s(S'021510'
p3020
I1
tp3021
I1
s(S'31500'
p3022
I2
tp3023
F-6.5780350047986555
s(S'12310'
p3024
I0
tp3025
F-3.255888374190353
s(S'02223'
p3026
I2
tp3027
F1.3018305389883778
s(S'00110'
p3028
I2
tp3029
F-34.50288168319849
s(S'01523'
p3030
I2
tp3031
F7.701054357324771
s(S'12120'
p3032
I1
tp3033
F-43.86043833628777
s(S'02310'
p3034
I2
tp3035
F7.923799944602978
s(S'12600'
p3036
I1
tp3037
F-8.796549728441784
s(S'00121'
p3038
I0
tp3039
F11.94365339967557
s(S'00221'
p3040
I0
tp3041
F-29.201828003809187
s(S'30010'
p3042
I2
tp3043
F-8.685190867554194
s(S'10062'
p3044
I2
tp3045
F-3.4764870716870746
s(S'02400'
p3046
I2
tp3047
F-9.817388365667888
s(S'00520'
p3048
I1
tp3049
F2.3827830440933875
s(S'21401'
p3050
I1
tp3051
F-53.458990551344556
s(S'10400'
p3052
I0
tp3053
F9.629854600107334
s(S'31400'
p3054
I1
tp3055
F-44.57915001571422
s(S'13201'
p3056
I1
tp3057
F2.9881566036154075
s(S'02000'
p3058
I1
tp3059
F-77.28212861881818
s(S'21321'
p3060
I1
tp3061
F-32.268986054377
s(S'01421'
p3062
I1
tp3063
F10.957312041876726
s(S'11305'
p3064
I0
tp3065
F5.8789578827621
s(S'30600'
p3066
I2
tp3067
F5.403945022587086
s(S'01023'
p3068
I2
tp3069
I1
s(S'01112'
p3070
I2
tp3071
F3.321872485972639
s(S'50112'
p3072
I1
tp3073
F-2.56834129652167
s(S'22112'
p3074
I1
tp3075
F-0.30130998022692723
s(S'14100'
p3076
I0
tp3077
F-7.989160504502183
s(S'03120'
p3078
I0
tp3079
F7.020146493129983
s(S'00204'
p3080
I2
tp3081
F-2.223581898526778
s(S'11131'
p3082
I2
tp3083
F-38.34352851448462
s(S'14401'
p3084
I2
tp3085
F3.627147046210191
s(S'60310'
p3086
I2
tp3087
F2.261400527461925
s(S'33728'
p3088
I1
tp3089
F1.32768
s(S'41010'
p3090
I2
tp3091
F-3.5420046096729965
s(S'10101'
p3092
I2
tp3093
F5.510098929464012
s(S'13110'
p3094
I2
tp3095
F6.227659201191678
s(S'01101'
p3096
I2
tp3097
F5.0038740074986165
s(S'10304'
p3098
I2
tp3099
F2.678009477408906
s(S'20410'
p3100
I0
tp3101
F-34.651336935102265
s(S'21002'
p3102
I0
tp3103
F-158.0392490374411
s(S'45010'
p3104
I2
tp3105
F-0.08823576633668906
s(S'20211'
p3106
I2
tp3107
F-36.167162027744716
s(S'21132'
p3108
I2
tp3109
I-200
s(S'13302'
p3110
I2
tp3111
F2.3733918496150777
s(S'05112'
p3112
I2
tp3113
F3.215447656832344
s(S'00043'
p3114
I1
tp3115
F-42.37461476969861
s(S'10053'
p3116
I2
tp3117
F-38.55257404983417
s(S'01411'
p3118
I1
tp3119
F-10.55440146579208
s(S'11000'
p3120
I1
tp3121
F-138.3182487594845
s(S'11212'
p3122
I2
tp3123
F-36.078458464686975
s(S'22511'
p3124
I2
tp3125
F3.8240015092773896
s(S'02104'
p3126
I1
tp3127
F-31.218343777092578
s(S'03101'
p3128
I1
tp3129
F-1.9066886003580574
s(S'10326'
p3130
I0
tp3131
F5.622886808568946
s(S'61002'
p3132
I1
tp3133
F-7.457147699826033
s(S'00333'
p3134
I2
tp3135
F3.162192442125154
s(S'21013'
p3136
I2
tp3137
F-12.886859294279024
s(S'00032'
p3138
I1
tp3139
F-0.27384582020003156
s(S'01121'
p3140
I0
tp3141
F-0.6298395895398574
s(S'11503'
p3142
I2
tp3143
F-7.69265797708346
s(S'00315'
p3144
I2
tp3145
F7.680424430993604
s(S'11031'
p3146
I1
tp3147
F6.1287671552018175
s(S'34483'
p3148
I1
tp3149
I-200
s(S'02112'
p3150
I2
tp3151
F-24.636145603695788
s(S'12611'
p3152
I2
tp3153
F0.8688975491142896
s(S'13010'
p3154
I0
tp3155
F1.9344864613110273
s(S'10023'
p3156
I1
tp3157
F-40.95636338942964
s(S'04000'
p3158
I0
tp3159
F-86.58126845213633
s(S'12101'
p3160
I2
tp3161
F-58.93719032326009
s(S'44210'
p3162
I2
tp3163
F7.492418386623903
s(S'11340'
p3164
I2
tp3165
F7.450663827616781
s(S'00006'
p3166
I0
tp3167
F-129.83083892384053
s(S'10213'
p3168
I1
tp3169
F7.693851973284387
s(S'04001'
p3170
I2
tp3171
F-113.77457019436835
s(S'50000'
p3172
I1
tp3173
F-82.69307114702737
s(S'11511'
p3174
I2
tp3175
F7.327611186870048
s(S'30005'
p3176
I2
tp3177
F-29.003037746790557
s(S'52411'
p3178
I1
tp3179
I1
s(S'04201'
p3180
I1
tp3181
F3.007777834708733
s(S'51003'
p3182
I2
tp3183
F-28.55008856130655
s(S'15131'
p3184
I0
tp3185
F5.57564724045267
s(S'12103'
p3186
I1
tp3187
F-16.98295611310824
s(S'00023'
p3188
I2
tp3189
F-37.9855414381203
s(S'11420'
p3190
I2
tp3191
F-6.758406347919009
s(S'10120'
p3192
I2
tp3193
F-36.00065807594323
s(S'02003'
p3194
I2
tp3195
F-51.411989671604495
s(S'012011'
p3196
I1
tp3197
F1.0
s(S'01134'
p3198
I1
tp3199
I1
s(S'43000'
p3200
I0
tp3201
I-200
s(S'61201'
p3202
I0
tp3203
F6.414259040307048
s(S'14103'
p3204
I0
tp3205
F5.32928050525755
s(S'32000'
p3206
I2
tp3207
F-7.3219590939180925
s(S'11124'
p3208
I2
tp3209
F-1.6209683014191936
s(S'00035'
p3210
I1
tp3211
F-58.7217474086273
s(S'23012'
p3212
I2
tp3213
F2.0172187977262714
s(S'43210'
p3214
I2
tp3215
F7.4338279571743575
s(S'21141'
p3216
I2
tp3217
F4.73676406307305
s(S'11215'
p3218
I0
tp3219
I5
s(S'20034'
p3220
I0
tp3221
F5.45600422073086
s(S'40004'
p3222
I1
tp3223
F-65.36809209235487
s(S'00052'
p3224
I0
tp3225
F-104.7612225991541
s(S'00120'
p3226
I0
tp3227
F12.46352080174476
s(S'00150'
p3228
I2
tp3229
F5.815742439921385
s(S'11403'
p3230
I0
tp3231
F-35.344658482267434
s(S'11141'
p3232
I0
tp3233
F11.418483532438609
s(S'15220'
p3234
I1
tp3235
F4.3800756605422455
s(S'04102'
p3236
I1
tp3237
F-0.24396043851007
s(S'11200'
p3238
I1
tp3239
F-62.39148090426738
s(S'35011'
p3240
I2
tp3241
I1
s(S'[0, 3, 3, 1, 0]False'
p3242
I2
tp3243
F7.511396693528266
s(S'11003'
p3244
I2
tp3245
F-53.84625270524558
s(S'01010'
p3246
I0
tp3247
F-16.59477823922515
s(S'51012'
p3248
I2
tp3249
I1
s(S'20134'
p3250
I2
tp3251
I1
s(S'20300'
p3252
I1
tp3253
F-32.88991699357197
s(S'20100'
p3254
I0
tp3255
F-24.691950764886613
s(S'31131'
p3256
I0
tp3257
F-9.76928894960505
s(S'14131'
p3258
I2
tp3259
F2.616432605868569
s(S'10032'
p3260
I0
tp3261
F-51.428492846771604
s(S'04111'
p3262
I1
tp3263
F-5.265422066761962
s(S'17084'
p3264
I2
tp3265
F1.1280000000000001
s(S'01213'
p3266
I2
tp3267
F6.422896829236825
s(S'12124'
p3268
I0
tp3269
F3.7079918633861233
s(S'01040'
p3270
I1
tp3271
F1.221243031039609
s(S'11121'
p3272
I2
tp3273
F4.092976337442555
s(S'20110'
p3274
I1
tp3275
F-37.168511812468566
s(S'31003'
p3276
I1
tp3277
F-14.532652642933769
s(S'41001'
p3278
I1
tp3279
F-32.43238048837868
s(S'11504'
p3280
I1
tp3281
I-200
s(S'20200'
p3282
I1
tp3283
F-45.965827346926055
s(S'41013'
p3284
I2
tp3285
F-10.89818790575677
s(S'00141'
p3286
I2
tp3287
F5.517213728804642
s(S'02004'
p3288
I0
tp3289
F-23.55456662045105
s(S'00403'
p3290
I2
tp3291
F9.248659700367792
s(S'10142'
p3292
I0
tp3293
F7.857951241788881
s(S'05010'
p3294
I0
tp3295
F-14.714852087517755
s(S'[0, 2, 1, 0, 0]False'
p3296
I2
tp3297
F-4.007608101588694
s(S'51004'
p3298
I2
tp3299
F-41.63924190527351
s(S'20041'
p3300
I2
tp3301
F-51.821716644714606
s(S'23020'
p3302
I1
tp3303
F5.14879175550356
s(S'10511'
p3304
I2
tp3305
F7.655538051717604
s(S'14301'
p3306
I1
tp3307
F3.2303297211458735
s(S'53021'
p3308
I0
tp3309
F4.4750493519455805
s(S'20016'
p3310
I2
tp3311
F-71.51654313154773
s(S'02011'
p3312
I0
tp3313
F-45.27390622014039
s(S'03110'
p3314
I0
tp3315
F-8.09293335752768
s(S'23310'
p3316
I1
tp3317
F3.5356819464674087
s(S'11341'
p3318
I1
tp3319
F-4.5748649876003
s(S'02102'
p3320
I0
tp3321
F-40.52068657372055
s(S'00022'
p3322
I1
tp3323
F5.898094387537814
s(S'02222'
p3324
I1
tp3325
F2.059123865602003
s(S'40011'
p3326
I2
tp3327
F-22.83816417655766
s(S'21003'
p3328
I1
tp3329
F-20.523461912587535
s(S'04321'
p3330
I1
tp3331
I1
s(S'41410'
p3332
I2
tp3333
F4.81547729147169
s(S'00034'
p3334
I0
tp3335
F-66.53203217987964
s(S'41120'
p3336
I2
tp3337
F3.6544555024884104
s(S'10063'
p3338
I1
tp3339
F3.918694954945941
s(S'13060'
p3340
I2
tp3341
F-4.457313276941889
s(S'12310'
p3342
I2
tp3343
F4.658289913888517
s(S'11004'
p3344
I0
tp3345
F-78.10704405176585
s(S'22221'
p3346
I2
tp3347
F1.7123822107936402
s(S'06020'
p3348
I2
tp3349
F1.9251454832351693
s(S'21320'
p3350
I2
tp3351
F-8.402199598066659
s(S'41211'
p3352
I1
tp3353
F7.7503651103615425
s(S'13002'
p3354
I2
tp3355
F-59.93402978601215
s(S'11012'
p3356
I1
tp3357
F-7.301880183206914
s(S'10215'
p3358
I0
tp3359
F11.881963284989581
s(S'01214'
p3360
I0
tp3361
F7.6977112759879605
s(S'20311'
p3362
I2
tp3363
F-32.39998298133127
s(S'12400'
p3364
I0
tp3365
F-41.25526692124541
s(S'60101'
p3366
I2
tp3367
F-0.6992041110893451
s(S'01315'
p3368
I1
tp3369
F4.607602444060486
s(S'21301'
p3370
I1
tp3371
F-4.482542240008963
s(S'14012'
p3372
I1
tp3373
F-36.644962526666006
s(S'12041'
p3374
I1
tp3375
F-39.95991966631298
s(S'00130'
p3376
I0
tp3377
F-8.347989331194007
s(S'31012'
p3378
I0
tp3379
F-15.221469530639647
s(S'51004'
p3380
I1
tp3381
F-4.064926640172429
s(S'22014'
p3382
I2
tp3383
F-1.2833394511368188
s(S'40320'
p3384
I2
tp3385
F4.898289860239063
s(S'10100'
p3386
I1
tp3387
F-37.72882949384364
s(S'12060'
p3388
I1
tp3389
F2.89250603546913
s(S'50004'
p3390
I2
tp3391
F-28.11718614928687
s(S'12111'
p3392
I0
tp3393
F-36.73035336174572
s(S'01132'
p3394
I0
tp3395
F6.187950275251672
s(S'10130'
p3396
I1
tp3397
F5.807475657775383
s(S'30016'
p3398
I2
tp3399
F-12.940317701209493
s(S'01522'
p3400
I2
tp3401
F10.441386792964519
s(S'10116'
p3402
I2
tp3403
F-6.299915237755377
s(S'70001'
p3404
I0
tp3405
F-47.488399465016926
s(S'03020'
p3406
I1
tp3407
F6.832384345832705
s(S'31113'
p3408
I1
tp3409
F1.2597235042160937
s(S'41002'
p3410
I2
tp3411
F-49.51784458000843
s(S'03410'
p3412
I1
tp3413
F5.530351443841807
s(S'14111'
p3414
I0
tp3415
F-16.045131552272696
s(S'31031'
p3416
I2
tp3417
F-5.5961485869382805
s(S'32101'
p3418
I1
tp3419
F-16.47349383794661
s(S'42011'
p3420
I0
tp3421
F-45.51243542447228
s(S'12005'
p3422
I1
tp3423
F-8.329206872969213
s(S'03100'
p3424
I2
tp3425
F0.720326355788308
s(S'00104'
p3426
I1
tp3427
F-20.322176239513563
s(S'03000'
p3428
I2
tp3429
F-70.30514919824307
s(S'10025'
p3430
I2
tp3431
F-0.44130094012359145
s(S'04121'
p3432
I0
tp3433
F-1.9823260551750028
s(S'21012'
p3434
I1
tp3435
F-91.89163947889294
s(S'22301'
p3436
I1
tp3437
F-1.0001436950903895
s(S'28051'
p3438
I2
tp3439
I1
s(S'42129'
p3440
I2
tp3441
I1
s(S'24001'
p3442
I1
tp3443
F-10.333235386112316
s(S'11040'
p3444
I0
tp3445
F-3.2372775292122347
s(S'13220'
p3446
I1
tp3447
I1
s(S'15030'
p3448
I1
tp3449
F5.733172661198143
s(S'43111'
p3450
I2
tp3451
F1.9333388565591036
s(S'01100'
p3452
I2
tp3453
F6.411630106793555
s(S'50001'
p3454
I2
tp3455
F-136.44173551831807
s(S'11600'
p3456
I1
tp3457
F-35.91031841145996
s(S'14002'
p3458
I0
tp3459
F-12.954142724123269
s(S'11022'
p3460
I0
tp3461
F1.2296674961332685
s(S'53010'
p3462
I0
tp3463
F6.142106261859963
s(S'21111'
p3464
I0
tp3465
F-99.73210288726594
s(S'01160'
p3466
I1
tp3467
F-4.539827721131565
s(S'21133'
p3468
I2
tp3469
F-14.843763200885743
s(S'31005'
p3470
I0
tp3471
F-9.735435321691417
s(S'15010'
p3472
I2
tp3473
F-4.02700647329055
s(S'22003'
p3474
I2
tp3475
F-48.15827987635255
s(S'23100'
p3476
I0
tp3477
F-17.055643796088145
s(S'04012'
p3478
I2
tp3479
F2.1987701687305448
s(S'00212'
p3480
I2
tp3481
F-34.6285495964178
s(S'23010'
p3482
I2
tp3483
F1.8106512414494917
s(S'03300'
p3484
I1
tp3485
F6.785699941289242
s(S'21818'
p3486
I0
tp3487
I5
s(S'02002'
p3488
I1
tp3489
F-106.4845889605515
s(S'11303'
p3490
I0
tp3491
F-78.07369138825881
s(S'00060'
p3492
I1
tp3493
F0.37950661953907705
s(S'51002'
p3494
I2
tp3495
F-13.536920296825826
s(S'11125'
p3496
I1
tp3497
F0.9252724422718294
s(S'22114'
p3498
I1
tp3499
F1.6635318201431262
s(S'41005'
p3500
I0
tp3501
F-8.414194883694424
s(S'63100'
p3502
I2
tp3503
F-9.70567170146194
s(S'21140'
p3504
I1
tp3505
F-34.54827976354495
s(S'03122'
p3506
I0
tp3507
F7.111271496152556
s(S'00612'
p3508
I0
tp3509
F12.359056670986464
s(S'60002'
p3510
I0
tp3511
F-95.99373880733853
s(S'12100'
p3512
I2
tp3513
F-10.824976971633276
s(S'00103'
p3514
I1
tp3515
F-11.401345633417767
s(S'21220'
p3516
I0
tp3517
F-7.7648190114042785
s(S'21500'
p3518
I0
tp3519
F-53.19018824035537
s(S'00326'
p3520
I2
tp3521
F9.310327956340423
s(S'12500'
p3522
I1
tp3523
F-10.842323828945382
s(S'10033'
p3524
I1
tp3525
F-10.39511194262411
s(S'10300'
p3526
I1
tp3527
F-1.0525854590710342
s(S'15121'
p3528
I1
tp3529
F2.3806460591239476
s(S'13212'
p3530
I2
tp3531
F2.0098530020615133
s(S'00041'
p3532
I1
tp3533
F5.704335580627142
s(S'20600'
p3534
I0
tp3535
F-35.204447680988416
s(S'30022'
p3536
I2
tp3537
F-4.109049930284613
s(S'11002'
p3538
I1
tp3539
F-10.360586530313547
s(S'20051'
p3540
I0
tp3541
F4.086562230918721
s(S'11441'
p3542
I0
tp3543
F5.002014383503872
s(S'20301'
p3544
I2
tp3545
F-34.35905191255933
s(S'00026'
p3546
I0
tp3547
F-27.568006752822463
s(S'33001'
p3548
I0
tp3549
F-153.01689303643644
s(S'11014'
p3550
I0
tp3551
F0.7557857334536038
s(S'61000'
p3552
I1
tp3553
F-101.98113646343327
s(S'10206'
p3554
I1
tp3555
F2.6893109088255462
s(S'00030'
p3556
I1
tp3557
F-64.60696497248735
s(S'30031'
p3558
I2
tp3559
F-84.21283280015038
s(S'11033'
p3560
I1
tp3561
F4.219881848838128
s(S'10405'
p3562
I2
tp3563
I1
s(S'16101'
p3564
I2
tp3565
I1
s(S'20130'
p3566
I1
tp3567
F5.564027866329941
s(S'41114'
p3568
I2
tp3569
F-0.10779534674219282
s(S'61100'
p3570
I1
tp3571
F-21.400506261477435
s(S'42111'
p3572
I2
tp3573
F2.9925308398499957
s(S'00004'
p3574
I0
tp3575
F-151.44830633659174
s(S'40111'
p3576
I2
tp3577
F-38.49334619750519
s(S'01001'
p3578
I0
tp3579
F-114.02486066734568
s(S'00422'
p3580
I0
tp3581
F16.264335446703726
s(S'50210'
p3582
I1
tp3583
F-0.1761857089702179
s(S'52020'
p3584
I1
tp3585
I1
s(S'63110'
p3586
I0
tp3587
F7.803198112594184
s(S'22400'
p3588
I2
tp3589
F-2.9058610999492274
s(S'40411'
p3590
I1
tp3591
F6.269543916462979
s(S'10005'
p3592
I0
tp3593
F-107.36794650118972
s(S'11310'
p3594
I1
tp3595
F7.738856837256611
s(S'30015'
p3596
I1
tp3597
F-2.082437109559545
s(S'00026'
p3598
I1
tp3599
F5.144368862062109
s(S'30420'
p3600
I2
tp3601
F0.6707966650957389
s(S'40120'
p3602
I2
tp3603
F2.3621921873254403
s(S'51013'
p3604
I2
tp3605
F-19.49503242977859
s(S'51121'
p3606
I0
tp3607
F-0.03582144775373752
s(S'60011'
p3608
I1
tp3609
F-37.48217549506547
s(S'01320'
p3610
I2
tp3611
F7.80966280313472
s(S'05321'
p3612
I2
tp3613
F1.877952479437946
s(S'13030'
p3614
I1
tp3615
F-3.9702001948900913
s(S'43100'
p3616
I1
tp3617
F-18.583429571426418
s(S'11230'
p3618
I1
tp3619
F5.7325815967969245
s(S'11304'
p3620
I1
tp3621
F-66.01796114415548
s(S'41200'
p3622
I0
tp3623
F-65.35626622100696
s(S'10042'
p3624
I2
tp3625
F-71.70067780278606
s(S'30113'
p3626
I0
tp3627
F-1.1062341326268168
s(S'10005'
p3628
I1
tp3629
F-60.660761381632184
s(S'10020'
p3630
I2
tp3631
F-1.875343286776316
s(S'50120'
p3632
I0
tp3633
F9.513614987551966
s(S'01142'
p3634
I0
tp3635
F10.672999541016052
s(S'31100'
p3636
I1
tp3637
F-0.9043307256867332
s(S'41012'
p3638
I2
tp3639
F-1.6352815353192405
s(S'12001'
p3640
I0
tp3641
F-121.73425498031042
s(S'00122'
p3642
I0
tp3643
F13.551757374494358
s(S'00100'
p3644
I2
tp3645
F6.220004202063068
s(S'02300'
p3646
I2
tp3647
F-1.5111903585997855
s(S'00062'
p3648
I0
tp3649
F-110.72444687962036
s(S'10201'
p3650
I1
tp3651
F6.124292351460613
s(S'21212'
p3652
I2
tp3653
F-2.461205692246138
s(S'04100'
p3654
I1
tp3655
F-2.336090630856905
s(S'20040'
p3656
I2
tp3657
F-44.37032334736019
s(S'61518'
p3658
I0
tp3659
I5
s(S'02200'
p3660
I0
tp3661
F-66.25379606212906
s(S'41113'
p3662
I0
tp3663
F-3.88419805164867
s(S'40321'
p3664
I1
tp3665
F5.602357577501429
s(S'40301'
p3666
I1
tp3667
F0.18836654409198128
s(S'10031'
p3668
I0
tp3669
F-93.20219198901174
s(S'16001'
p3670
I0
tp3671
F-41.85833482383237
s(S'32020'
p3672
I1
tp3673
F4.1689690219249735
s(S'11104'
p3674
I2
tp3675
F-22.40214580994544
s(S'10131'
p3676
I2
tp3677
F-5.907450085457521
s(S'01233'
p3678
I0
tp3679
F7.062448359575301
s(S'12122'
p3680
I0
tp3681
F-57.168108447616106
s(S'21201'
p3682
I0
tp3683
F-71.33222091249165
s(S'00433'
p3684
I1
tp3685
F5.748039372243559
s(S'31001'
p3686
I1
tp3687
F-20.841943542444717
s(S'41003'
p3688
I1
tp3689
F-9.289631119351446
s(S'30012'
p3690
I1
tp3691
F-66.8528815480439
s(S'32100'
p3692
I2
tp3693
F-0.3913913864666023
s(S'11030'
p3694
I2
tp3695
F-0.6713798845135828
s(S'12311'
p3696
I2
tp3697
F7.461457321098761
s(S'02051'
p3698
I1
tp3699
I1
s(S'51201'
p3700
I2
tp3701
F-0.03378251485868855
s(S'21150'
p3702
I0
tp3703
F10.368762814906066
s(S'00105'
p3704
I2
tp3705
F-5.1358677427561705
s(S'03001'
p3706
I1
tp3707
F-24.425009898781553
s(S'10140'
p3708
I0
tp3709
F-1.8265358981360853
s(S'13310'
p3710
I0
tp3711
F7.292879407264736
s(S'54210'
p3712
I1
tp3713
F6.814795920496698
s(S'20310'
p3714
I2
tp3715
F-36.894202848574466
s(S'22110'
p3716
I0
tp3717
F-14.365012903663224
s(S'13130'
p3718
I0
tp3719
F5.898800641839865
s(S'23110'
p3720
I0
tp3721
F8.728222143836842
s(S'13021'
p3722
I2
tp3723
F-6.610839336994699
s(S'11221'
p3724
I2
tp3725
F2.6030376627968845
s(S'11321'
p3726
I2
tp3727
I-200
s(S'50202'
p3728
I1
tp3729
F-0.32760012260763927
s(S'29081'
p3730
I0
tp3731
I5
s(S'41123'
p3732
I2
tp3733
F1.676628343110548
s(S'42001'
p3734
I0
tp3735
F-59.81997743363215
s(S'03112'
p3736
I0
tp3737
F-1.8295366405064142
s(S'23001'
p3738
I0
tp3739
F-77.9981319100952
s(S'00024'
p3740
I0
tp3741
F-60.18838172473447
s(S'21050'
p3742
I1
tp3743
F2.0798137401606906
s(S'21004'
p3744
I1
tp3745
F-44.96715609669398
s(S'40005'
p3746
I0
tp3747
F-17.25163942017336
s(S'51011'
p3748
I0
tp3749
I-200
s(S'40201'
p3750
I1
tp3751
F4.4773650638292715
s(S'00045'
p3752
I2
tp3753
F-40.00281843084326
s(S'20004'
p3754
I2
tp3755
F-165.3954037939622
s(S'11006'
p3756
I0
tp3757
F-99.24774333737238
s(S'11016'
p3758
I0
tp3759
F-3.137934513534865
s(S'01031'
p3760
I0
tp3761
F-1.8789223820433416
s(S'21030'
p3762
I0
tp3763
F-10.474876253013512
s(S'20401'
p3764
I1
tp3765
F6.756301093737403
s(S'60003'
p3766
I1
tp3767
F-24.060526232424802
s(S'01044'
p3768
I2
tp3769
F-4.57074205083115
s(S'11010'
p3770
I1
tp3771
F-21.783032209615687
s(S'05000'
p3772
I2
tp3773
F-123.14222595747037
s(S'05022'
p3774
I0
tp3775
F5.430934933242331
s(S'10510'
p3776
I2
tp3777
F6.325831820663266
s(S'11501'
p3778
I1
tp3779
F-5.499167157864807
s(S'30016'
p3780
I0
tp3781
F-13.390858696956151
s(S'05100'
p3782
I1
tp3783
F-10.552713639932024
s(S'12133'
p3784
I1
tp3785
I1
s(S'10112'
p3786
I0
tp3787
F-4.836218630591949
s(S'31014'
p3788
I0
tp3789
F-12.236556545049968
s(S'30040'
p3790
I1
tp3791
F-1.2841937386442828
s(S'10021'
p3792
I0
tp3793
F-85.90341172331495
s(S'00622'
p3794
I2
tp3795
F2.527530951993191
s(S'26010'
p3796
I2
tp3797
F-4.816655392513104
s(S'22310'
p3798
I0
tp3799
F8.194535717926296
s(S'30101'
p3800
I2
tp3801
F-0.5620701057125934
s(S'01020'
p3802
I1
tp3803
F-0.8790784590959912
s(S'41021'
p3804
I2
tp3805
F0.08028476122507655
s(S'40101'
p3806
I0
tp3807
F10.394740154764733
s(S'02020'
p3808
I0
tp3809
F4.403958772628911
s(S'01102'
p3810
I1
tp3811
F-51.64030965653454
s(S'00040'
p3812
I2
tp3813
F-6.471448272912289
s(S'11113'
p3814
I0
tp3815
F-32.90835529648548
s(S'22002'
p3816
I2
tp3817
F-60.795436971519415
s(S'00140'
p3818
I2
tp3819
F-0.3768874153936528
s(S'10015'
p3820
I0
tp3821
F-40.952241906494244
s(S'23200'
p3822
I1
tp3823
F-4.593726435814034
s(S'31230'
p3824
I0
tp3825
I5
s(S'24010'
p3826
I1
tp3827
F-7.182535713978352
s(S'42028'
p3828
I1
tp3829
F1.1856
s(S'30301'
p3830
I0
tp3831
F10.346435694901638
s(S'61001'
p3832
I2
tp3833
F-2.779766421059774
s(S'15320'
p3834
I0
tp3835
I5
s(S'21014'
p3836
I1
tp3837
F-32.67392417953725
s(S'00031'
p3838
I2
tp3839
F-102.36185697069362
s(S'41101'
p3840
I2
tp3841
F0.884017068136989
s(S'33410'
p3842
I0
tp3843
I5
s(S'03031'
p3844
I1
tp3845
F3.051923762777454
s(S'33228'
p3846
I1
tp3847
I1
s(S'11160'
p3848
I2
tp3849
F-16.017960232301746
s(S'16200'
p3850
I0
tp3851
F5.686354976435218
s(S'44111'
p3852
I1
tp3853
F3.5755085850077037
s(S'00050'
p3854
I1
tp3855
F-4.248987984357136
s(S'20611'
p3856
I0
tp3857
F7.1206630696204805
s(S'24010'
p3858
I0
tp3859
F-2.6386475021469744
s(S'11401'
p3860
I1
tp3861
F-81.93549625289242
s(S'01202'
p3862
I2
tp3863
F-9.969292144205117
s(S'10210'
p3864
I2
tp3865
F5.493979758322552
s(S'05011'
p3866
I2
tp3867
F1.994982298289452
s(S'01530'
p3868
I0
tp3869
F11.053973609421622
s(S'30111'
p3870
I2
tp3871
F-0.32037680360961396
s(S'11020'
p3872
I0
tp3873
F-62.87915125244973
s(S'45011'
p3874
I2
tp3875
F-1.0156806601031096
s(S'21113'
p3876
I0
tp3877
F-77.19344330287738
s(S'30014'
p3878
I2
tp3879
F-9.275758680201024
s(S'21330'
p3880
I2
tp3881
F-2.953530327496118
s(S'30421'
p3882
I1
tp3883
F5.796040465164007
s(S'30221'
p3884
I1
tp3885
F4.279038904328715
s(S'11301'
p3886
I0
tp3887
F-116.5185487771572
s(S'04200'
p3888
I1
tp3889
F-5.6588229389938824
s(S'13031'
p3890
I2
tp3891
F1.0831131226090562
s(S'11231'
p3892
I2
tp3893
F-35.00959716472501
s(S'11123'
p3894
I1
tp3895
F-4.663344380404846
s(S'20112'
p3896
I0
tp3897
F-53.885554777142715
s(S'00022'
p3898
I0
tp3899
F-103.60468922665146
s(S'14031'
p3900
I0
tp3901
F-44.09933143865299
s(S'30231'
p3902
I1
tp3903
F3.105278933357793
s(S'13050'
p3904
I1
tp3905
F-62.16341926284754
s(S'03011'
p3906
I0
tp3907
F-65.39052369221261
s(S'16100'
p3908
I2
tp3909
F5.511422763854431
s(S'50014'
p3910
I2
tp3911
F-13.739608639248832
s(S'00101'
p3912
I1
tp3913
F-7.576352651299669
s(S'30411'
p3914
I0
tp3915
F-31.391089737309507
s(S'15111'
p3916
I1
tp3917
F-2.6697400690954396
s(S'10105'
p3918
I2
tp3919
F-2.0233010799374025
s(S'40110'
p3920
I2
tp3921
F4.884265078720602
s(S'04411'
p3922
I1
tp3923
F2.449746560481104
s(S'06101'
p3924
I1
tp3925
F-2.6762976566531886
s(S'04101'
p3926
I2
tp3927
F2.620494824492635
s(S'12022'
p3928
I2
tp3929
F3.784824718207142
s(S'41005'
p3930
I2
tp3931
F-5.202217552441553
s(S'12211'
p3932
I2
tp3933
F-2.5120889639530466
s(S'15101'
p3934
I1
tp3935
F-11.56257895185414
s(S'30501'
p3936
I0
tp3937
F9.978014436097784
s(S'15211'
p3938
I1
tp3939
I1
s(S'00330'
p3940
I0
tp3941
F10.188432452297045
s(S'40121'
p3942
I2
tp3943
F-0.14833866112501237
s(S'11421'
p3944
I2
tp3945
F-6.336085049218
s(S'02100'
p3946
I1
tp3947
F-38.551158956776845
s(S'00020'
p3948
I0
tp3949
F-71.16070805847619
s(S'32410'
p3950
I1
tp3951
F2.9917254236175324
s(S'03002'
p3952
I1
tp3953
F-13.274070742690018
s(S'05101'
p3954
I1
tp3955
F-9.960282221756168
s(S'31000'
p3956
I2
tp3957
F-46.86914034430462
s(S'04020'
p3958
I1
tp3959
F6.660776959823269
s(S'10061'
p3960
I0
tp3961
F-40.3252807893235
s(S'10011'
p3962
I0
tp3963
F-82.94786873073576
s(S'10043'
p3964
I2
tp3965
F-66.57782765398784
s(S'11103'
p3966
I0
tp3967
F-42.691557221234085
s(S'21120'
p3968
I1
tp3969
F6.169854843706439
s(S'51200'
p3970
I1
tp3971
F-5.673579600074492
s(S'70000'
p3972
I2
tp3973
I-200
s(S'02141'
p3974
I0
tp3975
F6.283638837453376
s(S'14321'
p3976
I0
tp3977
F5.8
s(S'01004'
p3978
I1
tp3979
F-3.732146962077364
s(S'01003'
p3980
I0
tp3981
F-8.068439727850599
s(S'21040'
p3982
I0
tp3983
F6.376458036073785
s(S'00424'
p3984
I0
tp3985
F11.830547963326094
s(S'50111'
p3986
I1
tp3987
F-35.54748285054411
s(S'00511'
p3988
I0
tp3989
F14.440443940992024
s(S'01313'
p3990
I0
tp3991
F7.184929356947538
s(S'14010'
p3992
I0
tp3993
F-34.60322670296533
s(S'00201'
p3994
I0
tp3995
F11.028314446691773
s(S'11520'
p3996
I0
tp3997
I-200
s(S'14302'
p3998
I2
tp3999
F4.259761907608682
s(S'11312'
p4000
I1
tp4001
F-2.834309466781712
s(S'31010'
p4002
I1
tp4003
F6.313626068092657
s(S'40112'
p4004
I2
tp4005
F-1.1110149115549501
s(S'01161'
p4006
I2
tp4007
F5.982239625175767
s(S'10102'
p4008
I0
tp4009
F0.5788011473174994
s(S'22201'
p4010
I2
tp4011
F-9.54571039784836
s(S'43021'
p4012
I0
tp4013
F-1.863163021354544
s(S'22120'
p4014
I0
tp4015
F12.714493648180397
s(S'21005'
p4016
I2
tp4017
F-53.170036896217105
s(S'14130'
p4018
I2
tp4019
F2.955651357589627
s(S'01130'
p4020
I1
tp4021
F3.37067882610429
s(S'33857'
p4022
I1
tp4023
I1
s(S'00121'
p4024
I1
tp4025
F-32.29954491651603
s(S'13301'
p4026
I0
tp4027
F8.332907369102129
s(S'11120'
p4028
I2
tp4029
F-40.27938500855107
s(S'00044'
p4030
I1
tp4031
F-13.524186978826332
s(S'01120'
p4032
I0
tp4033
F-30.802809759729755
s(S'42010'
p4034
I0
tp4035
F11.101481524572193
s(S'05101'
p4036
I0
tp4037
F-0.5795175943940767
s(S'11211'
p4038
I0
tp4039
F-20.001768243148646
s(S'20030'
p4040
I0
tp4041
F-39.24920860984872
s(S'10025'
p4042
I1
tp4043
F1.1395613195616128
s(S'12003'
p4044
I0
tp4045
F-79.83764362132106
s(S'91818'
p4046
I0
tp4047
I5
s(S'03400'
p4048
I1
tp4049
F-0.18042292507958835
s(S'01323'
p4050
I1
tp4051
I1
s(S'11011'
p4052
I2
tp4053
F-52.74919769578072
s(S'23111'
p4054
I0
tp4055
F-5.525428613300537
s(S'11145'
p4056
I0
tp4057
I5
s(S'10203'
p4058
I1
tp4059
F-38.04568578522889
s(S'21010'
p4060
I0
tp4061
F-12.00688990803463
s(S'40031'
p4062
I0
tp4063
F-39.87268570915961
s(S'00316'
p4064
I0
tp4065
F13.174868369726454
s(S'41048'
p4066
I1
tp4067
I1
s(S'11220'
p4068
I2
tp4069
F3.030189468324375
s(S'05200'
p4070
I2
tp4071
F7.138121683302894
s(S'30211'
p4072
I0
tp4073
F-31.818549558994782
s(S'03042'
p4074
I2
tp4075
F2.089498678683129
s(S'31102'
p4076
I0
tp4077
F-45.031397424207896
s(S'41111'
p4078
I0
tp4079
F-7.748180247228515
s(S'52000'
p4080
I2
tp4081
F-57.00205777524779
s(S'01014'
p4082
I0
tp4083
F-9.722753284731391
s(S'00003'
p4084
I2
tp4085
F-176.10060811604305
s(S'50411'
p4086
I1
tp4087
I-200
s(S'50003'
p4088
I1
tp4089
F-51.62904903619533
s(S'01021'
p4090
I2
tp4091
F-5.299017068530903
s(S'30000'
p4092
I0
tp4093
F-167.83715183070717
s(S'30200'
p4094
I0
tp4095
F-37.309552416482745
s(S'12120'
p4096
I0
tp4097
F8.858742021283254
s(S'10002'
p4098
I2
tp4099
F-101.17894985943886
s(S'12600'
p4100
I2
tp4101
F4.614043391151635
s(S'00221'
p4102
I1
tp4103
F9.963684885634839
s(S'30010'
p4104
I1
tp4105
F-7.387891699523125
s(S'00141'
p4106
I1
tp4107
F-31.73332605023114
s(S'21401'
p4108
I0
tp4109
I-200
s(S'10400'
p4110
I1
tp4111
F0.6891690581273916
s(S'31400'
p4112
I0
tp4113
F-48.41405916384869
s(S'24011'
p4114
I2
tp4115
F-10.84960582922496
s(S'20015'
p4116
I0
tp4117
F-54.14336492301655
s(S'04221'
p4118
I0
tp4119
F5.921818976659102
s(S'02000'
p4120
I0
tp4121
F-161.40801403990073
s(S'21321'
p4122
I2
tp4123
F-20.328534447577198
s(S'11050'
p4124
I1
tp4125
F-3.2504358695807243
s(S'12151'
p4126
I0
tp4127
I5
s(S'51000'
p4128
I1
tp4129
F-136.35350417703205
s(S'05001'
p4130
I2
tp4131
F-64.57516132762117
s(S'50011'
p4132
I2
tp4133
F-41.35792257894545
s(S'12201'
p4134
I2
tp4135
F-5.440269055883366
s(S'11114'
p4136
I0
tp4137
F-47.93129790157549
s(S'22112'
p4138
I0
tp4139
F-9.198870129357912
s(S'50021'
p4140
I2
tp4141
F-8.741009017679207
s(S'00300'
p4142
I2
tp4143
F-6.961125041964633
s(S'32311'
p4144
I1
tp4145
F-37.85177348862301
s(S'52111'
p4146
I0
tp4147
I5
s(S'[0, 1, 4, 1, 0]False'
p4148
I2
tp4149
I1
s(S'20012'
p4150
I2
tp4151
F0.7105004202209422
s(S'04001'
p4152
I1
tp4153
I-200
s(S'12030'
p4154
I1
tp4155
I-200
s(S'20410'
p4156
I1
tp4157
F5.497293642612312
s(S'10051'
p4158
I0
tp4159
F-55.22154746992106
s(S'30100'
p4160
I2
tp4161
F5.5118321570910656
s(S'15300'
p4162
I1
tp4163
F-3.2894987860668765
s(S'14211'
p4164
I0
tp4165
F-67.9684152268933
s(S'31311'
p4166
I0
tp4167
F4.349285994239827
s(S'31500'
p4168
I1
tp4169
F-38.933597773147106
s(S'01411'
p4170
I2
tp4171
F0.2523595022066081
s(S'04300'
p4172
I2
tp4173
F7.870239814932337
s(S'11000'
p4174
I0
tp4175
F-145.95225006631597
s(S'21511'
p4176
I1
tp4177
F2.9118626397262894
s(S'44010'
p4178
I1
tp4179
F2.187960648332197
s(S'01501'
p4180
I1
tp4181
F5.731635278269742
s(S'03101'
p4182
I2
tp4183
F-7.333150910451405
s(S'03301'
p4184
I1
tp4185
F4.581408451798919
s(S'21410'
p4186
I2
tp4187
F7.308936805187788
s(S'11016'
p4188
I1
tp4189
F-3.248447781317265
s(S'14020'
p4190
I2
tp4191
F-3.4007133690585425
s(S'01210'
p4192
I0
tp4193
F11.015765352383033
s(S'32000'
p4194
I1
tp4195
F-96.88851114166341
s(S'05020'
p4196
I0
tp4197
I5
s(S'00010'
p4198
I0
tp4199
F-15.569247316762869
s(S'02210'
p4200
I0
tp4201
F12.775292501574405
s(S'41100'
p4202
I2
tp4203
F-5.883650129279909
s(S'11031'
p4204
I0
tp4205
F-43.38026518526919
s(S'13000'
p4206
I2
tp4207
F-36.519505086466324
s(S'00252'
p4208
I2
tp4209
F8.583533838553755
s(S'10023'
p4210
I0
tp4211
F-5.861489527108469
s(S'04200'
p4212
I0
tp4213
F-2.471934012025936
s(S'01330'
p4214
I2
tp4215
F7.196292496351717
s(S'01052'
p4216
I2
tp4217
F4.635982645980225
s(S'15110'
p4218
I2
tp4219
F6.908193943532578
s(S'10104'
p4220
I1
tp4221
F-6.596191167868381
s(S'01203'
p4222
I2
tp4223
F4.158726284618707
s(S'31012'
p4224
I1
tp4225
F-11.514570930770502
s(S'32410'
p4226
I0
tp4227
F-34.51035042038631
s(S'50000'
p4228
I2
tp4229
F-194.88050011346823
s(S'02121'
p4230
I2
tp4231
F4.323877397520025
s(S'12600'
p4232
I0
tp4233
F-30.88266304173617
s(S'25310'
p4234
I1
tp4235
F3.5601164503147347
s(S'11430'
p4236
I0
tp4237
F-3.772932543694594
s(S'11111'
p4238
I0
tp4239
F-52.640275786486484
s(S'21331'
p4240
I2
tp4241
F-6.6291755418556
s(S'11051'
p4242
I2
tp4243
F6.112254571560279
s(S'11102'
p4244
I1
tp4245
F-126.46521320939266
s(S'12140'
p4246
I2
tp4247
F2.2715394732081564
s(S'00243'
p4248
I0
tp4249
F12.53781236283591
s(S'11420'
p4250
I1
tp4251
F5.693331945110266
s(S'51101'
p4252
I1
tp4253
F-26.36032360929515
s(S'20101'
p4254
I1
tp4255
F-4.96208519184043
s(S'40014'
p4256
I0
tp4257
F-43.022088719534075
s(S'43000'
p4258
I1
tp4259
I-200
s(S'15300'
p4260
I2
tp4261
F5.9443881365947835
s(S'51113'
p4262
I2
tp4263
F0.8362967609413035
s(S'50200'
p4264
I0
tp4265
F-4.739495067443997
s(S'41202'
p4266
I1
tp4267
F-6.880807518958203
s(S'12221'
p4268
I1
tp4269
F-0.03012133498074343
s(S'02121'
p4270
I1
tp4271
F-6.411975603892275
s(S'41230'
p4272
I2
tp4273
I1
s(S'00002'
p4274
I2
tp4275
F-94.11847044892049
s(S'15200'
p4276
I1
tp4277
F5.627061477918886
s(S'00052'
p4278
I1
tp4279
F-88.47708651380415
s(S'04110'
p4280
I0
tp4281
F-3.2944970115278647
s(S'00120'
p4282
I1
tp4283
F-33.82402865523613
s(S'61103'
p4284
I2
tp4285
I1
s(S'11403'
p4286
I1
tp4287
F-23.857209728860973
s(S'01104'
p4288
I2
tp4289
F-5.040919388558952
s(S'31301'
p4290
I0
tp4291
F6.291001358730718
s(S'10401'
p4292
I1
tp4293
F2.0254652082962687
s(S'43012'
p4294
I2
tp4295
I1
s(S'21123'
p4296
I0
tp4297
F-0.3477004769393499
s(S'21020'
p4298
I0
tp4299
F-36.10219571956934
s(S'12210'
p4300
I2
tp4301
F7.399882072658526
s(S'02030'
p4302
I2
tp4303
F1.6881398456281116
s(S'02012'
p4304
I0
tp4305
F-11.640097738987835
s(S'21310'
p4306
I0
tp4307
F9.111587322191198
s(S'53100'
p4308
I0
tp4309
F-10.88102830715485
s(S'20300'
p4310
I2
tp4311
F6.145213368741466
s(S'20100'
p4312
I1
tp4313
F-26.47439385611129
s(S'22100'
p4314
I0
tp4315
F-87.15177186272797
s(S'31131'
p4316
I1
tp4317
F-0.06848120024369297
s(S'10133'
p4318
I1
tp4319
F6.043761602192351
s(S'00012'
p4320
I1
tp4321
F4.141869768274874
s(S'13102'
p4322
I2
tp4323
F-40.766106406529204
s(S'11121'
p4324
I1
tp4325
F-33.77317351076048
s(S'20110'
p4326
I0
tp4327
F-49.661245931261085
s(S'41001'
p4328
I0
tp4329
F-106.58839233396904
s(S'00225'
p4330
I2
tp4331
F6.598885126207756
s(S'20200'
p4332
I0
tp4333
F9.379070044414778
s(S'01400'
p4334
I0
tp4335
F-72.58883609714475
s(S'10404'
p4336
I2
tp4337
F5.999122583014189
s(S'03013'
p4338
I0
tp4339
F4.194250766962947
s(S'50013'
p4340
I1
tp4341
F-11.589456864202772
s(S'03041'
p4342
I1
tp4343
F1.944310817576441
s(S'03401'
p4344
I2
tp4345
F4.401557579869831
s(S'22300'
p4346
I0
tp4347
F-114.46419439942875
s(S'12104'
p4348
I2
tp4349
F-1.9880129149165329
s(S'03003'
p4350
I0
tp4351
F0.4120983415300774
s(S'41210'
p4352
I1
tp4353
F4.314415477438998
s(S'90618'
p4354
I1
tp4355
I1
s(S'43011'
p4356
I2
tp4357
F-7.812518694677906
s(S'10003'
p4358
I2
tp4359
F-131.74668459632773
s(S'20023'
p4360
I1
tp4361
F1.7509571350341386
s(S'00130'
p4362
I1
tp4363
F6.0096114556134745
s(S'35111'
p4364
I1
tp4365
F1.9506376278662159
s(S'20311'
p4366
I0
tp4367
F10.507557037275346
s(S'03110'
p4368
I1
tp4369
F-13.851396698270932
s(S'25010'
p4370
I1
tp4371
F-10.868671826805814
s(S'91828'
p4372
I2
tp4373
I1
s(S'24310'
p4374
I2
tp4375
F1.0
s(S'11341'
p4376
I0
tp4377
F-4.854652426107418
s(S'02102'
p4378
I1
tp4379
F-5.638563834799956
s(S'51102'
p4380
I2
tp4381
F3.3218988001644574
s(S'22200'
p4382
I2
tp4383
F-0.9030582083152339
s(S'31121'
p4384
I1
tp4385
F-2.8525713119800953
s(S'21114'
p4386
I2
tp4387
F-50.75254383321749
s(S'14321'
p4388
I1
tp4389
F-2.5388604412926834
s(S'40028'
p4390
I2
tp4391
F1.0
s(S'00220'
p4392
I2
tp4393
F6.35678821114205
s(S'41120'
p4394
I1
tp4395
F-6.1901953314000355
s(S'10013'
p4396
I0
tp4397
F-3.5020546479780785
s(S'42011'
p4398
I1
tp4399
F-44.61176429380283
s(S'04011'
p4400
I0
tp4401
F-34.52198102715162
s(S'21122'
p4402
I1
tp4403
F-10.445682968895234
s(S'13013'
p4404
I0
tp4405
I-200
s(S'13200'
p4406
I1
tp4407
F-14.639022132513318
s(S'21320'
p4408
I1
tp4409
F6.961090177381311
s(S'10310'
p4410
I1
tp4411
F-5.1779605701856655
s(S'00221'
p4412
I2
tp4413
F7.403024591931054
s(S'20050'
p4414
I2
tp4415
F-37.71007925878651
s(S'01005'
p4416
I0
tp4417
F-5.819227678984223
s(S'12400'
p4418
I1
tp4419
F-41.567511906779174
s(S'14103'
p4420
I2
tp4421
F-36.19473053306294
s(S'52210'
p4422
I1
tp4423
F7.145968962325035
s(S'01220'
p4424
I0
tp4425
F10.96567111430499
s(S'14012'
p4426
I0
tp4427
F-7.26806926830599
s(S'00203'
p4428
I0
tp4429
F-30.774713598909706
s(S'38002'
p4430
I2
tp4431
I-200
s(S'10110'
p4432
I1
tp4433
F5.452803203435817
s(S'23121'
p4434
I1
tp4435
F1.9814293200351925
s(S'60001'
p4436
I2
tp4437
F-173.10383358571866
s(S'52001'
p4438
I2
tp4439
F-71.84897921931125
s(S'50002'
p4440
I2
tp4441
F-132.89141476350792
s(S'10316'
p4442
I1
tp4443
F3.3144340428447334
s(S'10100'
p4444
I0
tp4445
F-37.753339053963195
s(S'04210'
p4446
I0
tp4447
F8.435794689055026
s(S'41400'
p4448
I0
tp4449
F-35.55630348908017
s(S'31141'
p4450
I2
tp4451
F1.4774278456521943
s(S'10130'
p4452
I2
tp4453
F-4.1217919481407685
s(S'11116'
p4454
I1
tp4455
F-1.1798151968847053
s(S'00410'
p4456
I1
tp4457
F7.971771078510668
s(S'00042'
p4458
I1
tp4459
F-40.40308024321801
s(S'11115'
p4460
I1
tp4461
F-13.371445494282685
s(S'01410'
p4462
I1
tp4463
F8.407995951141869
s(S'32510'
p4464
I2
tp4465
I1
s(S'32101'
p4466
I2
tp4467
F1.7872024518189171
s(S'11213'
p4468
I0
tp4469
F3.3688086508948345
s(S'20032'
p4470
I0
tp4471
F2.7792767504957814
s(S'12005'
p4472
I0
tp4473
F-43.43136549837537
s(S'03100'
p4474
I1
tp4475
F5.4313352854301105
s(S'10043'
p4476
I1
tp4477
F-5.436221104008951
s(S'00104'
p4478
I2
tp4479
F-0.8440136425178781
s(S'61003'
p4480
I1
tp4481
F-14.59521641317956
s(S'31111'
p4482
I0
tp4483
F-37.81729768522031
s(S'10205'
p4484
I1
tp4485
I1
s(S'12220'
p4486
I0
tp4487
F5.950187915124016
s(S'21012'
p4488
I0
tp4489
F-82.42472926593294
s(S'31021'
p4490
I2
tp4491
I-200
s(S'00301'
p4492
I2
tp4493
F-2.720107562397141
s(S'02115'
p4494
I0
tp4495
F5.015645867840613
s(S'14200'
p4496
I0
tp4497
F-0.38014270805334327
s(S'30015'
p4498
I2
tp4499
F-57.58449362496721
s(S'00131'
p4500
I0
tp4501
F-30.425091777278418
s(S'20013'
p4502
I2
tp4503
F-78.17228197943948
s(S'00542'
p4504
I2
tp4505
F6.6128124581904935
s(S'01311'
p4506
I2
tp4507
F-7.442621544972762
s(S'10212'
p4508
I1
tp4509
F6.985730872838346
s(S'40221'
p4510
I2
tp4511
F5.710561694387798
s(S'10035'
p4512
I0
tp4513
F-2.937687652585844
s(S'50001'
p4514
I1
tp4515
F-72.63233619591593
s(S'11510'
p4516
I0
tp4517
F13.262815463420996
s(S'11100'
p4518
I2
tp4519
F3.4936425701999743
s(S'00340'
p4520
I0
tp4521
F11.791215296269119
s(S'06001'
p4522
I2
tp4523
F-31.382429531308038
s(S'01160'
p4524
I0
tp4525
F-0.567911084580877
s(S'31005'
p4526
I1
tp4527
F-9.83065677547291
s(S'30016'
p4528
I1
tp4529
F-0.104514938148206
s(S'21103'
p4530
I0
tp4531
I-200
s(S'10313'
p4532
I1
tp4533
F3.721248329495348
s(S'11602'
p4534
I0
tp4535
I5
s(S'02002'
p4536
I0
tp4537
F-103.67887507662758
s(S'51300'
p4538
I0
tp4539
F8.259408038725617
s(S'16130'
p4540
I0
tp4541
I5
s(S'43001'
p4542
I2
tp4543
F-4.947598838182154
s(S'51002'
p4544
I1
tp4545
I-200
s(S'14021'
p4546
I2
tp4547
F-26.403470478042852
s(S'11233'
p4548
I1
tp4549
I1
s(S'[1, 2, 1, 0, 0]False'
p4550
I2
tp4551
F-3.345778159811747
s(S'20521'
p4552
I1
tp4553
F4.2986033962723855
s(S'21200'
p4554
I0
tp4555
F-188.3343223615443
s(S'40021'
p4556
I2
tp4557
F-13.9113947115328
s(S'44300'
p4558
I0
tp4559
F8.234258073260905
s(S'21140'
p4560
I0
tp4561
F9.429792738715122
s(S'11331'
p4562
I0
tp4563
F-41.72856191219418
s(S'31200'
p4564
I2
tp4565
F5.381415756895464
s(S'01331'
p4566
I2
tp4567
F6.674777338794597
s(S'22011'
p4568
I2
tp4569
F-30.037801682231333
s(S'00103'
p4570
I0
tp4571
F-4.91432556917365
s(S'10410'
p4572
I2
tp4573
F3.2038939982318237
s(S'50301'
p4574
I2
tp4575
F5.7362208376825325
s(S'21220'
p4576
I1
tp4577
F4.804574509793719
s(S'10053'
p4578
I0
tp4579
F4.721977175671281
s(S'21000'
p4580
I1
tp4581
F-114.00234163565325
s(S'23211'
p4582
I1
tp4583
F1.9498167889152085
s(S'04103'
p4584
I1
tp4585
F-0.062144415553361254
s(S'10300'
p4586
I0
tp4587
F10.606162848407594
s(S'41020'
p4588
I2
tp4589
F-3.6366705138973607
s(S'00041'
p4590
I2
tp4591
F-82.6353879461418
s(S'32000'
p4592
I0
tp4593
F-167.78676201507545
s(S'11002'
p4594
I0
tp4595
F-87.55524867943416
s(S'01013'
p4596
I2
tp4597
F-11.936947059723664
s(S'30120'
p4598
I0
tp4599
F-0.6851078729818179
s(S'11441'
p4600
I1
tp4601
F-2.2039895751520078
s(S'31410'
p4602
I2
tp4603
F5.688557034118768
s(S'01503'
p4604
I1
tp4605
F7.3677919691723215
s(S'20301'
p4606
I1
tp4607
I-200
s(S'31130'
p4608
I2
tp4609
F7.527863281228553
s(S'33001'
p4610
I1
tp4611
F-13.25997163560176
s(S'04110'
p4612
I1
tp4613
F-1.2220551600345289
s(S'11014'
p4614
I1
tp4615
F-21.709266481276714
s(S'61000'
p4616
I2
tp4617
F-67.93268446763462
s(S'01212'
p4618
I0
tp4619
F12.657746549970538
s(S'14000'
p4620
I0
tp4621
F-128.59659474857426
s(S'51112'
p4622
I2
tp4623
F-4.147274899586815
s(S'31002'
p4624
I1
tp4625
F-22.5833507121059
s(S'00030'
p4626
I2
tp4627
F-0.457809196208226
s(S'00352'
p4628
I2
tp4629
F2.5829901681135246
s(S'24100'
p4630
I0
tp4631
F-21.259015121074984
s(S'31100'
p4632
I0
tp4633
F-56.58816609080532
s(S'50012'
p4634
I2
tp4635
F-66.25270638088973
s(S'15001'
p4636
I0
tp4637
I-200
s(S'20130'
p4638
I0
tp4639
F-1.2522686361445738
s(S'22410'
p4640
I0
tp4641
F5.5897834129238015
s(S'10211'
p4642
I2
tp4643
F-34.86411202004952
s(S'10034'
p4644
I1
tp4645
F-7.195012863866261
s(S'32220'
p4646
I1
tp4647
F6.362879902368314
s(S'50010'
p4648
I2
tp4649
F-5.144123404895946
s(S'01121'
p4650
I2
tp4651
F7.020920093037049
s(S'30430'
p4652
I1
tp4653
F3.460346734699586
s(S'01024'
p4654
I1
tp4655
F1.9717789955214027
s(S'22400'
p4656
I1
tp4657
F-41.290419150823425
s(S'14121'
p4658
I1
tp4659
F5.527926816539455
s(S'03201'
p4660
I0
tp4661
I5
s(S'00163'
p4662
I1
tp4663
F6.92875603247487
s(S'03223'
p4664
I2
tp4665
F1.0
s(S'40112'
p4666
I1
tp4667
F-6.340065578667172
s(S'50013'
p4668
I0
tp4669
F-32.66189338064275
s(S'11310'
p4670
I0
tp4671
F11.838285712043987
s(S'03411'
p4672
I1
tp4673
F-0.06744150911779578
s(S'02031'
p4674
I2
tp4675
F-8.184777086559777
s(S'00106'
p4676
I2
tp4677
F3.010183064898259
s(S'01111'
p4678
I2
tp4679
F4.400482196063269
s(S'53200'
p4680
I2
tp4681
F7.565628656978802
s(S'01411'
p4682
I0
tp4683
F13.278783929178458
s(S'12040'
p4684
I2
tp4685
F-60.43619463620633
s(S'02103'
p4686
I2
tp4687
F2.4752100260931664
s(S'51103'
p4688
I1
tp4689
I1
s(S'40401'
p4690
I1
tp4691
F7.301468652301846
s(S'60011'
p4692
I0
tp4693
F-54.69194522248502
s(S'13012'
p4694
I0
tp4695
F-37.4443842990605
s(S'13030'
p4696
I2
tp4697
F-0.007724258965295605
s(S'43100'
p4698
I0
tp4699
F-35.66622265185952
s(S'14101'
p4700
I0
tp4701
F-11.098414466703076
s(S'11230'
p4702
I2
tp4703
F-34.079986624846356
s(S'13103'
p4704
I2
tp4705
F-35.71242351426504
s(S'41200'
p4706
I1
tp4707
F0.7663432162620822
s(S'20001'
p4708
I0
tp4709
F-201.13248261508718
s(S'01414'
p4710
I0
tp4711
F8.621686671970059
s(S'01515'
p4712
I1
tp4713
F3.418422182903928
s(S'00122'
p4714
I1
tp4715
F8.310201554524822
s(S'11013'
p4716
I1
tp4717
F-5.390418807068725
s(S'30121'
p4718
I0
tp4719
F-27.050633302560833
s(S'10201'
p4720
I0
tp4721
F-30.140066686905534
s(S'12013'
p4722
I0
tp4723
F-13.72832042704969
s(S'21300'
p4724
I1
tp4725
F-205.0770469431569
s(S'04100'
p4726
I2
tp4727
F2.8173248549486294
s(S'43010'
p4728
I2
tp4729
F-1.7602659738973103
s(S'[0, 2, 3, 1, 0]False'
p4730
I1
tp4731
I1
s(S'21022'
p4732
I0
tp4733
F-35.2
s(S'31013'
p4734
I2
tp4735
F-20.77235761857051
s(S'03131'
p4736
I0
tp4737
F7.5642530408731785
s(S'41131'
p4738
I1
tp4739
F-1.2712541406046105
s(S'15021'
p4740
I1
tp4741
F2.053072759534966
s(S'11132'
p4742
I2
tp4743
F-13.730505625505804
s(S'00024'
p4744
I1
tp4745
F-10.138303766250718
s(S'23410'
p4746
I2
tp4747
F1.654844407404346
s(S'40301'
p4748
I0
tp4749
I-200
s(S'30131'
p4750
I0
tp4751
F7.87823377482745
s(S'13401'
p4752
I0
tp4753
F-32.856713155521746
s(S'10031'
p4754
I1
tp4755
F4.304329917940926
s(S'12112'
p4756
I2
tp4757
F-14.440757627703944
s(S'01341'
p4758
I1
tp4759
F7.007660059489971
s(S'10131'
p4760
I1
tp4761
F6.354502653074165
s(S'30202'
p4762
I1
tp4763
I1
s(S'01122'
p4764
I2
tp4765
F6.078234458420774
s(S'21115'
p4766
I2
tp4767
F1.3254660166312169
s(S'03021'
p4768
I1
tp4769
F1.2309126629311242
s(S'14050'
p4770
I0
tp4771
F5.532265931754323
s(S'31001'
p4772
I2
tp4773
F-130.20403577260967
s(S'41003'
p4774
I0
tp4775
I-200
s(S'30012'
p4776
I0
tp4777
F-37.25617654256518
s(S'53210'
p4778
I0
tp4779
F11.270186920866228
s(S'00143'
p4780
I0
tp4781
F11.04841637738164
s(S'32100'
p4782
I1
tp4783
F-14.923362026544769
s(S'15100'
p4784
I2
tp4785
F0.5716171206593329
s(S'50015'
p4786
I1
tp4787
F-1.71457528187754
s(S'26110'
p4788
I2
tp4789
F5.264037098450598
s(S'00105'
p4790
I1
tp4791
F9.284160875938666
s(S'03001'
p4792
I0
tp4793
F-94.41583145893429
s(S'10312'
p4794
I0
tp4795
F9.113692253599014
s(S'40114'
p4796
I2
tp4797
F-3.3645481472929886
s(S'01114'
p4798
I0
tp4799
F-2.3251149958790718
s(S'14102'
p4800
I2
tp4801
F3.2664713442928153
s(S'10306'
p4802
I1
tp4803
F3.480126051849928
s(S'20021'
p4804
I1
tp4805
F4.2431204260495665
s(S'24000'
p4806
I1
tp4807
F-39.70854268353305
s(S'40230'
p4808
I0
tp4809
F10.560353988986755
s(S'41101'
p4810
I0
tp4811
F-37.42500937197531
s(S'60000'
p4812
I2
tp4813
F-130.0605495297619
s(S'11274'
p4814
I0
tp4815
I5
s(S'03112'
p4816
I1
tp4817
F1.8063649206651993
s(S'03041'
p4818
I0
tp4819
F-20.22101271273089
s(S'01130'
p4820
I2
tp4821
F7.0809061603101835
s(S'26010'
p4822
I1
tp4823
F-16.589233863110003
s(S'00111'
p4824
I0
tp4825
F-35.97220208799077
s(S'02311'
p4826
I0
tp4827
F-3.1515144746775707
s(S'31004'
p4828
I2
tp4829
F-62.95533971329611
s(S'15011'
p4830
I0
tp4831
I5
s(S'32511'
p4832
I2
tp4833
F1.0
s(S'50200'
p4834
I1
tp4835
F3.6864777970971607
s(S'01031'
p4836
I1
tp4837
F3.537961937866307
s(S'13202'
p4838
I1
tp4839
F2.2968262273378155
s(S'03411'
p4840
I2
tp4841
F4.638798364950927
s(S'41300'
p4842
I0
tp4843
F4.900925003770026
s(S'11010'
p4844
I2
tp4845
F-37.46978289050977
s(S'05022'
p4846
I1
tp4847
F-9.814635113833075
s(S'00515'
p4848
I0
tp4849
F12.242791328200155
s(S'11501'
p4850
I0
tp4851
I-200
s(S'30101'
p4852
I1
tp4853
F-0.7259424824066054
s(S'01222'
p4854
I0
tp4855
F-3.4423700090599727
s(S'11524'
p4856
I0
tp4857
I5
s(S'10112'
p4858
I1
tp4859
F-33.03788756830606
s(S'60311'
p4860
I0
tp4861
F11.058833567994686
s(S'31014'
p4862
I1
tp4863
F-9.766590345811489
s(S'13203'
p4864
I2
tp4865
I1
s(S'00425'
p4866
I2
tp4867
F9.095755421563087
s(S'51428'
p4868
I2
tp4869
I1
s(S'00332'
p4870
I1
tp4871
F7.187931184142564
s(S'21221'
p4872
I2
tp4873
F-3.6743811429663125
s(S'13111'
p4874
I0
tp4875
F-35.37884962718987
s(S'21001'
p4876
I2
tp4877
F-26.892865052953383
s(S'01020'
p4878
I2
tp4879
F-2.9934277894627517
s(S'11101'
p4880
I2
tp4881
F-1.028927579855679
s(S'01402'
p4882
I0
tp4883
F10.001271801773738
s(S'20210'
p4884
I0
tp4885
F10.610410555865837
s(S'06000'
p4886
I2
tp4887
F-54.535413136241786
s(S'00040'
p4888
I1
tp4889
F4.139183629780952
s(S'11113'
p4890
I1
tp4891
F-25.746810798797803
s(S'23200'
p4892
I2
tp4893
F-0.8141992125605088
s(S'00241'
p4894
I1
tp4895
F8.126297367235827
s(S'11402'
p4896
I0
tp4897
F-40.77990475669508
s(S'11320'
p4898
I0
tp4899
F-34.89828363688975
s(S'00025'
p4900
I2
tp4901
F-15.957204559634535
s(S'11015'
p4902
I2
tp4903
F-9.17268465067264
s(S'05111'
p4904
I2
tp4905
F2.0689666527698316
s(S'31113'
p4906
I0
tp4907
F-5.791508363322256
s(S'10403'
p4908
I2
tp4909
F-6.533584348234168
s(S'21014'
p4910
I0
tp4911
I-200
s(S'12200'
p4912
I2
tp4913
F3.1515751042771356
s(S'10064'
p4914
I2
tp4915
I1
s(S'10016'
p4916
I2
tp4917
F-29.491465544704837
s(S'40020'
p4918
I2
tp4919
F1.1955776982022088
s(S'02113'
p4920
I0
tp4921
F-2.458420388854962
s(S'01511'
p4922
I0
tp4923
F14.900335464675688
s(S'41010'
p4924
I1
tp4925
F-2.6954906417071838
s(S'42110'
p4926
I0
tp4927
F8.304176691731403
s(S'10210'
p4928
I1
tp4929
F-37.59317555252643
s(S'23300'
p4930
I0
tp4931
F-64.39775687377764
s(S'30004'
p4932
I0
tp4933
F-174.28112188001793
s(S'63310'
p4934
I2
tp4935
I1
s(S'01112'
p4936
I0
tp4937
F-6.330517789369095
s(S'10006'
p4938
I2
tp4939
I-200
s(S'02500'
p4940
I2
tp4941
F6.215798569452926
s(S'30014'
p4942
I1
tp4943
F-3.8704754409036304
s(S'43101'
p4944
I2
tp4945
I1
s(S'21101'
p4946
I0
tp4947
F-1.1580429009494078
s(S'01012'
p4948
I2
tp4949
F-10.953348867187835
s(S'51014'
p4950
I0
tp4951
F-10.479637295912884
s(S'10121'
p4952
I0
tp4953
F13.123501855838404
s(S'40400'
p4954
I2
tp4955
F-36.65184883573696
s(S'03002'
p4956
I0
tp4957
F-43.29357779505215
s(S'13031'
p4958
I1
tp4959
F-37.87008069413839
s(S'01041'
p4960
I2
tp4961
F3.152580368526612
s(S'20113'
p4962
I2
tp4963
F-0.08599293492991233
s(S'11231'
p4964
I1
tp4965
F-36.19990339506579
s(S'41201'
p4966
I2
tp4967
F4.983731290884256
s(S'50311'
p4968
I1
tp4969
F5.506176192130024
s(S'50511'
p4970
I0
tp4971
F8.15861875015403
s(S'00304'
p4972
I2
tp4973
F7.128920064255844
s(S'14031'
p4974
I1
tp4975
F-39.04
s(S'42210'
p4976
I1
tp4977
F6.620190127639994
s(S'11214'
p4978
I2
tp4979
F-0.3116796108963982
s(S'03011'
p4980
I1
tp4981
F-14.724760674258526
s(S'41015'
p4982
I0
tp4983
F-44.38279316342258
s(S'28082'
p4984
I2
tp4985
I1
s(S'00151'
p4986
I0
tp4987
F9.183245910241801
s(S'00101'
p4988
I0
tp4989
F11.504034230195026
s(S'15111'
p4990
I2
tp4991
F1.0559484139624333
s(S'02301'
p4992
I0
tp4993
F11.214332667602676
s(S'00061'
p4994
I2
tp4995
F-38.79898595054559
s(S'40003'
p4996
I1
tp4997
F-24.231668887675376
s(S'00313'
p4998
I2
tp4999
F7.237935348167019
s(S'06101'
p5000
I0
tp5001
F-1.2449895766547079
s(S'10302'
p5002
I0
tp5003
F8.341452392795237
s(S'61013'
p5004
I2
tp5005
F-2.325530113949028
s(S'30501'
p5006
I1
tp5007
F-37.84291936733205
s(S'02203'
p5008
I2
tp5009
F0.9663729217146956
s(S'11050'
p5010
I2
tp5011
F-1.7387316144777296
s(S'52101'
p5012
I1
tp5013
F-0.09332524585099433
s(S'00053'
p5014
I2
tp5015
F0.4450295325195086
s(S'12041'
p5016
I2
tp5017
F-10.73799683850985
s(S'04011'
p5018
I1
tp5019
F-28.41694998634707
s(S'10030'
p5020
I2
tp5021
F-40.933882503801854
s(S'71000'
p5022
I0
tp5023
I-200
s(S'32021'
p5024
I1
tp5025
F-2.501056115504074
s(S'01340'
p5026
I2
tp5027
F9.464944682318936
s(S'04112'
p5028
I1
tp5029
F-3.200393900257681
s(S'00115'
p5030
I1
tp5031
F9.058885025914995
s(S'34210'
p5032
I0
tp5033
F10.80436928663339
s(S'21230'
p5034
I2
tp5035
F-6.395755565145251
s(S'31113'
p5036
I2
tp5037
F-4.151628794670074
s(S'00014'
p5038
I0
tp5039
F-133.06525664244757
s(S'51210'
p5040
I1
tp5041
F7.300648187974368
s(S'44010'
p5042
I2
tp5043
F-0.5123151598308877
s(S'10011'
p5044
I1
tp5045
F-15.930190079227101
s(S'10031'
p5046
I2
tp5047
F-74.00020218885311
s(S'11402'
p5048
I2
tp5049
F-3.2923312754988574
s(S'10403'
p5050
I1
tp5051
F-9.707457874814265
s(S'21120'
p5052
I0
tp5053
F-29.05993859475069
s(S'51200'
p5054
I0
tp5055
F-46.617780830665644
s(S'20132'
p5056
I0
tp5057
F6.800080681503499
s(S'02005'
p5058
I2
tp5059
F-14.069741589096035
s(S'10143'
p5060
I2
tp5061
F5.2083380720662475
s(S'32120'
p5062
I1
tp5063
F7.495424647645169
s(S'21040'
p5064
I1
tp5065
F-2.6124681909778245
s(S'11610'
p5066
I0
tp5067
F6.23505615561286
s(S'01341'
p5068
I2
tp5069
F-0.37267764462624164
s(S'50111'
p5070
I0
tp5071
F4.938163926035244
s(S'00133'
p5072
I1
tp5073
F8.825868383119571
s(S'03203'
p5074
I0
tp5075
F12.944390433935142
s(S'20020'
p5076
I2
tp5077
F0.14346451943975957
s(S'00201'
p5078
I1
tp5079
F0.6426318484872819
s(S'00061'
p5080
I1
tp5081
F3.205474505298341
s(S'11312'
p5082
I0
tp5083
F-31.270909681634386
s(S'01301'
p5084
I0
tp5085
F-15.955105758004697
s(S'41101'
p5086
I1
tp5087
F-2.618877850398964
s(S'04212'
p5088
I1
tp5089
F2.180153994912394
s(S'51105'
p5090
I1
tp5091
I1
s(S'13014'
p5092
I0
tp5093
F-2.6938984988980907
s(S'12113'
p5094
I2
tp5095
F-10.50753941393079
s(S'02131'
p5096
I2
tp5097
F6.699065224060093
s(S'[1, 4, 1, 0, 0]False'
p5098
I2
tp5099
F5.39685103460058
s(S'40200'
p5100
I1
tp5101
F-1.4976378228884686
s(S'11202'
p5102
I2
tp5103
F-14.376939537489474
s(S'00044'
p5104
I0
tp5105
F-61.84831584110256
s(S'20003'
p5106
I0
tp5107
F-168.96801663686466
s(S'12500'
p5108
I0
tp5109
F-46.95448179183627
s(S'11005'
p5110
I2
tp5111
F-22.26538374732168
s(S'20030'
p5112
I1
tp5113
F-37.505220900040115
s(S'20400'
p5114
I1
tp5115
F-29.185638991565426
s(S'03102'
p5116
I0
tp5117
F3.5929706505612207
s(S'13003'
p5118
I0
tp5119
F-91.08481164610546
s(S'11203'
p5120
I0
tp5121
F-70.598164902805
s(S'10203'
p5122
I0
tp5123
F-49.554100646157835
s(S'12011'
p5124
I0
tp5125
F-99.57097253565847
s(S'60100'
p5126
I0
tp5127
F-6.7821006509327635
s(S'03310'
p5128
I0
tp5129
F-1.5725174039437606
s(S'12121'
p5130
I1
tp5131
F-40.418139022081036
s(S'12301'
p5132
I0
tp5133
F-38.737113209951644
s(S'13010'
p5134
I2
tp5135
F-17.59393764645783
s(S'10113'
p5136
I2
tp5137
F-7.399831948797829
s(S'41210'
p5138
I2
tp5139
F-62.7875580357355
s(S'31302'
p5140
I2
tp5141
F-2.523038356885843
s(S'31102'
p5142
I1
tp5143
F-22.98681869851375
s(S'13211'
p5144
I0
tp5145
F-34.64611922962683
s(S'22500'
p5146
I0
tp5147
F9.93124698154466
s(S'62400'
p5148
I2
tp5149
F-0.44087886463636616
s(S'00224'
p5150
I1
tp5151
F7.588993050565036
s(S'02041'
p5152
I2
tp5153
F-0.3273491274724598
s(S'20104'
p5154
I1
tp5155
F3.067929218214293
s(S'50003'
p5156
I0
tp5157
F-156.71926367892223
s(S'01021'
p5158
I1
tp5159
F4.691832175643238
s(S'30000'
p5160
I1
tp5161
F-74.01706761010561
s(S'51003'
p5162
I0
tp5163
F-20.493031578136463
s(S'01231'
p5164
I1
tp5165
F-1.8600447064902932
s(S'30220'
p5166
I1
tp5167
F8.36210228145316
s(S'31500'
p5168
I0
tp5169
I-200
s(S'31210'
p5170
I2
tp5171
F6.795322304493955
s(S'30010'
p5172
I0
tp5173
F4.051727200207595
s(S'14110'
p5174
I2
tp5175
F-9.198203428859074
s(S'00141'
p5176
I0
tp5177
F-31.754228280563538
s(S'10400'
p5178
I2
tp5179
F-33.05880845767225
s(S'00214'
p5180
I0
tp5181
F12.533537057993302
s(S'24011'
p5182
I1
tp5183
F2.9588705977906278
s(S'30300'
p5184
I2
tp5185
F-36.632176377690854
s(S'51411'
p5186
I2
tp5187
F-39.04
s(S'10310'
p5188
I0
tp5189
F-2.5106074658046005
s(S'51000'
p5190
I0
tp5191
F-157.84236203303502
s(S'12201'
p5192
I1
tp5193
F-67.69037857272735
s(S'03132'
p5194
I1
tp5195
F1.5892913013679424
s(S'13041'
p5196
I1
tp5197
F-55.88437363381368
s(S'37857'
p5198
I2
tp5199
I1
s(S'30302'
p5200
I1
tp5201
F-1.1070232803123736
s(S'11131'
p5202
I0
tp5203
F-35.33127390893313
s(S'10110'
p5204
I0
tp5205
F-63.09870833252184
s(S'00051'
p5206
I1
tp5207
F4.353445173404068
s(S'11400'
p5208
I1
tp5209
F-21.94373329320191
s(S'01314'
p5210
I2
tp5211
I1
s(S'32112'
p5212
I2
tp5213
I1
s(S'11520'
p5214
I1
tp5215
F4.702003022078946
s(S'01101'
p5216
I0
tp5217
F-19.190307449756805
s(S'12030'
p5218
I0
tp5219
F-41.69359025376837
s(S'20410'
p5220
I2
tp5221
F1.8092529032821376
s(S'10051'
p5222
I1
tp5223
F3.4429189859857567
s(S'00113'
p5224
I0
tp5225
F-28.347419872655877
s(S'31140'
p5226
I2
tp5227
F6.331550985870506
s(S'45010'
p5228
I0
tp5229
F-1.7672188167308214
s(S'21110'
p5230
I2
tp5231
F6.855917643695481
s(S'14211'
p5232
I1
tp5233
F-13.312229235196284
s(S'21132'
p5234
I0
tp5235
F-147.81367184973197
s(S'31311'
p5236
I1
tp5237
I-200
s(S'23101'
p5238
I2
tp5239
F-3.162353624322597
s(S'32002'
p5240
I1
tp5241
F-93.08579844532925
s(S'63300'
p5242
I2
tp5243
F3.430390658784467
s(S'00024'
p5244
I2
tp5245
F0.8552093454222298
s(S'11302'
p5246
I2
tp5247
F-18.16249782173744
s(S'01430'
p5248
I1
tp5249
F7.480421817426521
s(S'42101'
p5250
I0
tp5251
F-7.863990482788779
s(S'14002'
p5252
I1
tp5253
F-13.7179538177698
s(S'00010'
p5254
I1
tp5255
F-72.65690960549232
s(S'41004'
p5256
I2
tp5257
F-42.810901827155185
s(S'00226'
p5258
I0
tp5259
F11.828980503769568
s(S'36000'
p5260
I2
tp5261
I-200
s(S'11503'
p5262
I0
tp5263
F6.055155593949286
s(S'14030'
p5264
I2
tp5265
F-27.265425633519374
s(S'21211'
p5266
I0
tp5267
F-73.2952176471126
s(S'10114'
p5268
I1
tp5269
F2.0624133574369337
s(S'10006'
p5270
I0
tp5271
I-200
s(S'15200'
p5272
I2
tp5273
F-24.433680230774126
s(S'41500'
p5274
I1
tp5275
F-35.733977087562266
s(S'12101'
p5276
I0
tp5277
F-68.80835619061557
s(S'42020'
p5278
I1
tp5279
F7.367219850904251
s(S'15110'
p5280
I1
tp5281
F-6.370094374666922
s(S'00006'
p5282
I2
tp5283
F-175.2792336871742
s(S'13113'
p5284
I0
tp5285
F-5.507224281564
s(S'00420'
p5286
I2
tp5287
F7.878106200655883
s(S'[1, 2, 1, 1, 0]False'
p5288
I0
tp5289
F7.120462929293268
s(S'00231'
p5290
I2
tp5291
F7.488700127485531
s(S'10103'
p5292
I0
tp5293
F1.8403932167186425
s(S'10134'
p5294
I2
tp5295
F1.6904889749687602
s(S'20212'
p5296
I0
tp5297
F-66.15882113344759
s(S'31600'
p5298
I0
tp5299
F9.600259285149924
s(S'20230'
p5300
I2
tp5301
F1.8893656451400243
s(S'62300'
p5302
I1
tp5303
I1
s(S'22030'
p5304
I0
tp5305
F5.951971968100019
s(S'11430'
p5306
I1
tp5307
F5.7478203356464785
s(S'11111'
p5308
I1
tp5309
F-0.7753309752079418
s(S'60210'
p5310
I1
tp5311
F5.480484754968212
s(S'13122'
p5312
I0
tp5313
I-200
s(S'11420'
p5314
I0
tp5315
F-40.019429504287565
s(S'02101'
p5316
I1
tp5317
F-11.572284805963736
s(S'51101'
p5318
I0
tp5319
F-52.04691693921687
s(S'13010'
p5320
I1
tp5321
F-11.87541386438118
s(S'00012'
p5322
I0
tp5323
F-149.68848411884815
s(S'43000'
p5324
I2
tp5325
F-19.735502695413153
s(S'32300'
p5326
I2
tp5327
F4.444155961155214
s(S'11221'
p5328
I0
tp5329
F-49.59110661121659
s(S'41220'
p5330
I0
tp5331
F-30.85947687622061
s(S'30002'
p5332
I0
tp5333
I-200
s(S'02121'
p5334
I0
tp5335
F-4.529950604471567
s(S'02111'
p5336
I0
tp5337
F4.9038389835569465
s(S'61111'
p5338
I0
tp5339
I5
s(S'20400'
p5340
I2
tp5341
F6.706202669577793
s(S'01034'
p5342
I1
tp5343
F5.0941081408062745
s(S'01104'
p5344
I0
tp5345
F-28.689164281681133
s(S'00052'
p5346
I2
tp5347
F-6.385643991747741
s(S'11403'
p5348
I2
tp5349
F-20.29262174820675
s(S'01000'
p5350
I2
tp5351
F-14.589163758302963
s(S'21041'
p5352
I2
tp5353
F-9.045378478177778
s(S'20143'
p5354
I1
tp5355
F1.827247204752636
s(S'11141'
p5356
I2
tp5357
F1.9450371139189313
s(S'30006'
p5358
I0
tp5359
F-210.19573846723253
s(S'14122'
p5360
I2
tp5361
F1.9979557561317765
s(S'11241'
p5362
I0
tp5363
I-200
s(S'24111'
p5364
I1
tp5365
F3.4317202009158043
s(S'00130'
p5366
I2
tp5367
F-1.624318935595737
s(S'11153'
p5368
I1
tp5369
I1
s(S'21020'
p5370
I1
tp5371
F6.670083702498909
s(S'31011'
p5372
I1
tp5373
F-5.153444958825454
s(S'02202'
p5374
I2
tp5375
F2.1979918449858693
s(S'20121'
p5376
I1
tp5377
F6.976039980472459
s(S'20014'
p5378
I0
tp5379
F-56.35254725578379
s(S'22100'
p5380
I1
tp5381
F-2.6090556885758405
s(S'01321'
p5382
I0
tp5383
F13.859851206083158
s(S'10116'
p5384
I0
tp5385
F-13.570683130098239
s(S'11121'
p5386
I0
tp5387
F-36.0
s(S'63000'
p5388
I2
tp5389
F-32.44313223594434
s(S'30112'
p5390
I2
tp5391
F-5.713904255401204
s(S'01623'
p5392
I2
tp5393
I1
s(S'01410'
p5394
I2
tp5395
F-1.1524516117726593
s(S'50121'
p5396
I2
tp5397
F5.0397089641788275
s(S'34120'
p5398
I0
tp5399
F6.220996724699323
s(S'41013'
p5400
I0
tp5401
F-35.51709367217953
s(S'12000'
p5402
I2
tp5403
F-92.06021721544977
s(S'03401'
p5404
I1
tp5405
F-0.9972139221205614
s(S'02004'
p5406
I2
tp5407
F-45.83506839039825
s(S'00153'
p5408
I0
tp5409
F-3.3329138974308954
s(S'11406'
p5410
I2
tp5411
I1
s(S'05221'
p5412
I0
tp5413
I5
s(S'10414'
p5414
I2
tp5415
I1
s(S'16031'
p5416
I2
tp5417
F1.1600000000000001
s(S'61200'
p5418
I0
tp5419
F4.98607973333468
s(S'10304'
p5420
I0
tp5421
F-0.3688831723988443
s(S'20041'
p5422
I0
tp5423
F-67.8121197564989
s(S'72000'
p5424
I0
tp5425
F-42.6337545834844
s(S'91838'
p5426
I0
tp5427
I5
s(S'41112'
p5428
I2
tp5429
F-13.119583150436931
s(S'20016'
p5430
I0
tp5431
F-71.36577069698251
s(S'25010'
p5432
I0
tp5433
F-24.162843277560807
s(S'[0, 4, 2, 1, 0]False'
p5434
I0
tp5435
F11.395456110437905
s(S'02012'
p5436
I2
tp5437
F-12.708275062095485
s(S'02102'
p5438
I2
tp5439
F1.7259984121710639
s(S'16000'
p5440
I2
tp5441
F-72.16024310989766
s(S'31121'
p5442
I0
tp5443
F2.9788507807026883
s(S'02130'
p5444
I2
tp5445
F8.86858189396264
s(S'14221'
p5446
I1
tp5447
I1
s(S'12051'
p5448
I1
tp5449
F1.0408034703928686
s(S'00016'
p5450
I0
tp5451
I-200
s(S'62200'
p5452
I0
tp5453
F9.19036408236284
s(S'00034'
p5454
I2
tp5455
F1.7721203916100448
s(S'04022'
p5456
I0
tp5457
F8.195284286669118
s(S'10013'
p5458
I1
tp5459
F-103.77025888919172
s(S'21104'
p5460
I2
tp5461
F-117.02131429866154
s(S'10153'
p5462
I1
tp5463
F4.525114283873119
s(S'11004'
p5464
I2
tp5465
F-15.57451105337795
s(S'21202'
p5466
I2
tp5467
F1.0213935383596757
s(S'51202'
p5468
I2
tp5469
F4.877342222184914
s(S'13200'
p5470
I0
tp5471
F-2.976698297427611
s(S'21320'
p5472
I0
tp5473
F-9.756169776895733
s(S'01422'
p5474
I2
tp5475
F11.213463628366377
s(S'40023'
p5476
I0
tp5477
F4.447001495872063
s(S'10016'
p5478
I1
tp5479
F-17.305912396526082
s(S'22111'
p5480
I2
tp5481
F-1.2870609864825664
s(S'13040'
p5482
I2
tp5483
F-6.059831791588831
s(S'00203'
p5484
I1
tp5485
F8.914883398408184
s(S'40010'
p5486
I1
tp5487
F2.899768087264799
s(S'31012'
p5488
I2
tp5489
F-3.5281428839464164
s(S'22014'
p5490
I0
tp5491
F-3.851565147238677
s(S'23000'
p5492
I2
tp5493
F-22.281170309321933
s(S'04210'
p5494
I1
tp5495
F-0.606005359119838
s(S'41600'
p5496
I2
tp5497
F5.01423606776163
s(S'41400'
p5498
I1
tp5499
F-8.102223944169017
s(S'40012'
p5500
I0
tp5501
I-200
s(S'40030'
p5502
I2
tp5503
F4.0396788214456665
s(S'01400'
p5504
I1
tp5505
F-31.1285749577524
s(S'14210'
p5506
I2
tp5507
F2.6132652207254568
s(S'40411'
p5508
I0
tp5509
I5
s(S'21517'
p5510
I0
tp5511
I5
s(S'31310'
p5512
I2
tp5513
F5.79616669019597
s(S'00042'
p5514
I0
tp5515
I-200
s(S'20005'
p5516
I0
tp5517
F-221.85693925552158
s(S'14111'
p5518
I2
tp5519
F-69.90433097397457
s(S'60201'
p5520
I0
tp5521
F5.774713367539108
s(S'01500'
p5522
I1
tp5523
F-44.61257583058836
s(S'20402'
p5524
I1
tp5525
F7.923302756065543
s(S'03100'
p5526
I0
tp5527
I-200
s(S'13001'
p5528
I0
tp5529
F-145.23145423343445
s(S'00126'
p5530
I1
tp5531
F8.2009898735081
s(S'11201'
p5532
I0
tp5533
F-73.92329513271304
s(S'61003'
p5534
I0
tp5535
F-12.6818129114122
s(S'50221'
p5536
I2
tp5537
F2.4859877237798202
s(S'31111'
p5538
I1
tp5539
F-38.20817744073722
s(S'13411'
p5540
I2
tp5541
F1.7092386218181588
s(S'00033'
p5542
I0
tp5543
F-31.82963623822757
s(S'10014'
p5544
I1
tp5545
F-22.200817851724317
s(S'14300'
p5546
I1
tp5547
F0.017759658074210427
s(S'14200'
p5548
I1
tp5549
F1.6970547040061632
s(S'02014'
p5550
I0
tp5551
F-11.790552808991691
s(S'00131'
p5552
I1
tp5553
F6.053157344547126
s(S'11040'
p5554
I2
tp5555
F-18.857608189967802
s(S'01303'
p5556
I0
tp5557
F-7.373273740855859
s(S'52400'
p5558
I1
tp5559
F1.1600000000000001
s(S'10212'
p5560
I0
tp5561
F-31.94513254672114
s(S'32130'
p5562
I0
tp5563
F6.87186028358964
s(S'10035'
p5564
I1
tp5565
F-3.7601386236203007
s(S'50001'
p5566
I0
tp5567
I-200
s(S'30100'
p5568
I1
tp5569
F-38.303739094504095
s(S'30002'
p5570
I1
tp5571
F-10.274109218891727
s(S'14220'
p5572
I2
tp5573
F3.0315242752619516
s(S'52410'
p5574
I0
tp5575
I5
s(S'20231'
p5576
I1
tp5577
F1.8894233341379492
s(S'21111'
p5578
I2
tp5579
F-32.7549811321497
s(S'31005'
p5580
I2
tp5581
F-7.8744354468575075
s(S'11110'
p5582
I2
tp5583
F-43.86764414442939
s(S'22003'
p5584
I0
tp5585
F-46.35684819745001
s(S'23100'
p5586
I2
tp5587
F-1.876485227357879
s(S'21103'
p5588
I1
tp5589
F-133.80575729815843
s(S'00061'
p5590
I0
tp5591
F-49.39968632113898
s(S'00212'
p5592
I0
tp5593
F14.972361182954602
s(S'11130'
p5594
I2
tp5595
F6.262047035534125
s(S'53110'
p5596
I2
tp5597
F8.14230748375377
s(S'11303'
p5598
I2
tp5599
F-44.30686729021254
s(S'10033'
p5600
I0
tp5601
F-40.99177843479734
s(S'43001'
p5602
I1
tp5603
F-38.09723685410558
s(S'51002'
p5604
I0
tp5605
F-44.89938159898893
s(S'[1, 2, 1, 0, 0]False'
p5606
I1
tp5607
F3.395903524756858
s(S'01110'
p5608
I0
tp5609
F-39.155173138727655
s(S'21200'
p5610
I1
tp5611
F-105.60667763634376
s(S'13131'
p5612
I1
tp5613
F1.3507457796088498
s(S'01050'
p5614
I2
tp5615
F4.229253851697534
s(S'11133'
p5616
I0
tp5617
F-1.5970437872350898
s(S'11331'
p5618
I1
tp5619
F-40.97012521545318
s(S'00053'
p5620
I1
tp5621
F7.0382931792124594
s(S'[0, 3, 1, 1, 0]False'
p5622
I0
tp5623
F-5.8375535695322585
s(S'11402'
p5624
I1
tp5625
F-17.900070124248323
s(S'21220'
p5626
I2
tp5627
F-4.028979584150743
s(S'01103'
p5628
I0
tp5629
F-9.649847381122797
s(S'10053'
p5630
I1
tp5631
F-37.60399553149636
s(S'21000'
p5632
I2
tp5633
F-44.58622321787213
s(S'24110'
p5634
I2
tp5635
F3.433963798405896
s(S'30131'
p5636
I1
tp5637
F-1.6579809836059916
s(S'21130'
p5638
I0
tp5639
F-82.78180741578643
s(S'05110'
p5640
I0
tp5641
F10.450561527044787
s(S'21311'
p5642
I2
tp5643
I-200
s(S'30022'
p5644
I0
tp5645
F-3.552508171598474
s(S'70000'
p5646
I0
tp5647
I-200
s(S'11150'
p5648
I1
tp5649
F-28.327940974688303
s(S'20301'
p5650
I0
tp5651
I5
s(S'10032'
p5652
I1
tp5653
F0.7027692265218164
s(S'22101'
p5654
I2
tp5655
F2.512488837277611
s(S'31130'
p5656
I1
tp5657
F-34.95198227012549
s(S'41500'
p5658
I0
tp5659
F-57.25528825176254
s(S'11014'
p5660
I2
tp5661
F-15.930339327906744
s(S'14000'
p5662
I1
tp5663
F-36.46606655320777
s(S'22300'
p5664
I2
tp5665
F-0.6120821897044311
s(S'31002'
p5666
I0
tp5667
F-53.784382532897055
s(S'01114'
p5668
I1
tp5669
F2.6288281497476067
s(S'02212'
p5670
I1
tp5671
F1.993035175680434
s(S'30031'
p5672
I0
tp5673
F-88.24429837559715
s(S'24100'
p5674
I1
tp5675
F-13.58831224181225
s(S'10116'
p5676
I1
tp5677
F4.438651004845225
s(S'50012'
p5678
I1
tp5679
F-6.88969800828579
s(S'15001'
p5680
I1
tp5681
F-73.63703410114431
s(S'71000'
p5682
I2
tp5683
F-35.95164463771892
s(S'41031'
p5684
I2
tp5685
F-1.3753430943019676
s(S'40111'
p5686
I0
tp5687
F-40.4547514519727
s(S'01001'
p5688
I2
tp5689
F-109.34681703500482
s(S'22020'
p5690
I1
tp5691
F-0.5494584637560633
s(S'01121'
p5692
I1
tp5693
F-2.8813663122217044
s(S'22400'
p5694
I0
tp5695
F-45.3035532059685
s(S'16110'
p5696
I0
tp5697
F10.258933261141465
s(S'00035'
p5698
I2
tp5699
I-200
s(S'23021'
p5700
I0
tp5701
I5
s(S'20022'
p5702
I1
tp5703
F-47.837101282085605
s(S'40112'
p5704
I0
tp5705
F-6.713722736953404
s(S'05030'
p5706
I2
tp5707
I1
s(S'14300'
p5708
I0
tp5709
F-29.99137406988048
s(S'01303'
p5710
I1
tp5711
F-1.1640488020074882
s(S'03111'
p5712
I1
tp5713
F-10.560120480405786
s(S'40120'
p5714
I0
tp5715
F-31.95008609831185
s(S'40002'
p5716
I1
tp5717
F-16.940059198067775
s(S'02103'
p5718
I1
tp5719
F-32.72069676404631
s(S'00021'
p5720
I2
tp5721
F-128.64552507237602
s(S'03211'
p5722
I2
tp5723
F4.497592622933457
s(S'13012'
p5724
I1
tp5725
F-38.73594457239979
s(S'12050'
p5726
I2
tp5727
F-83.91217135714994
s(S'12410'
p5728
I2
tp5729
F5.2670262990944465
s(S'41200'
p5730
I2
tp5731
F-26.695763978671618
s(S'10012'
p5732
I2
tp5733
F-89.10718395391817
s(S'10042'
p5734
I0
tp5735
F-84.01379162083093
s(S'20001'
p5736
I1
tp5737
F-24.04552732839229
s(S'00510'
p5738
I2
tp5739
F6.800803340090985
s(S'12001'
p5740
I2
tp5741
F-34.40982651059777
s(S'32011'
p5742
I2
tp5743
F-75.91275819147845
s(S'00122'
p5744
I2
tp5745
I-200
s(S'11013'
p5746
I0
tp5747
F-22.357984870630933
s(S'10214'
p5748
I1
tp5749
F5.990428816501747
s(S'13400'
p5750
I1
tp5751
F4.936217571714629
s(S'30121'
p5752
I1
tp5753
F3.814139320642524
s(S'12013'
p5754
I1
tp5755
F-1.8065295036095081
s(S'12401'
p5756
I1
tp5757
F-39.217392498280084
s(S'10030'
p5758
I0
tp5759
F-39.92090437795776
s(S'30141'
p5760
I1
tp5761
F-1.8366317917752406
s(S'21300'
p5762
I0
tp5763
F-171.05369488522115
s(S'14011'
p5764
I2
tp5765
F-59.24899038958581
s(S'01022'
p5766
I1
tp5767
F-3.289640844743558
s(S'10111'
p5768
I1
tp5769
F-34.556460683532585
s(S'21022'
p5770
I1
tp5771
F-7.262575601916714
s(S'31013'
p5772
I1
tp5773
F-2.858538787021796
s(S'02010'
p5774
I1
tp5775
F-20.849759492600143
s(S'41113'
p5776
I2
tp5777
F-0.16620610632363753
s(S'51510'
p5778
I0
tp5779
F10.65004636181658
s(S'10103'
p5780
I2
tp5781
F-8.15254145958642
s(S'21221'
p5782
I1
tp5783
F-68.92222695449506
s(S'13401'
p5784
I1
tp5785
I1
s(S'20102'
p5786
I2
tp5787
F-22.079054480662105
s(S'16001'
p5788
I2
tp5789
F-13.175783235337546
s(S'11104'
p5790
I0
tp5791
F-8.62375621379761
s(S'10131'
p5792
I0
tp5793
F-4.939284379149141
s(S'12122'
p5794
I2
tp5795
F-73.07597896617551
s(S'13300'
p5796
I2
tp5797
F-25.17343268217796
s(S'03021'
p5798
I0
tp5799
F-35.655278541323106
s(S'11114'
p5800
I1
tp5801
F-2.375222676288298
s(S'10015'
p5802
I2
tp5803
F-22.604154183342633
s(S'32100'
p5804
I0
tp5805
F-47.90275281921885
s(S'11210'
p5806
I2
tp5807
F7.385020235098152
s(S'41011'
p5808
I0
tp5809
F-70.05672284382484
s(S'24013'
p5810
I0
tp5811
I5
s(S'50201'
p5812
I1
tp5813
F6.477427786393468
s(S'01423'
p5814
I2
tp5815
F8.099411299619243
s(S'00401'
p5816
I0
tp5817
F12.730280829193912
s(S'10312'
p5818
I1
tp5819
F-1.9874855677418628
s(S'21011'
p5820
I2
tp5821
F-13.523666288622103
s(S'21431'
p5822
I1
tp5823
I1
s(S'22110'
p5824
I2
tp5825
F7.227342002995107
s(S'15120'
p5826
I0
tp5827
F7.064528836571988
s(S'13021'
p5828
I0
tp5829
F-34.78818262714564
s(S'01241'
p5830
I1
tp5831
F1.674335784605142
s(S'02114'
p5832
I2
tp5833
F2.964714798169975
s(S'20021'
p5834
I2
tp5835
F-68.92380238721995
s(S'52113'
p5836
I2
tp5837
F2.4477867738157473
s(S'24000'
p5838
I0
tp5839
F-111.95517422732446
s(S'31101'
p5840
I2
tp5841
F-39.40823636745478
s(S'13223'
p5842
I2
tp5843
F1.7476547645757898
s(S'15031'
p5844
I0
tp5845
I5
s(S'03112'
p5846
I2
tp5847
F-0.9847806883210817
s(S'23001'
p5848
I2
tp5849
F-60.10679845224048
s(S'22031'
p5850
I1
tp5851
F2.0296426996490844
s(S'40220'
p5852
I0
tp5853
F8.850463334310984
s(S'40500'
p5854
I0
tp5855
F-34.86331917123309
s(S'10034'
p5856
I2
tp5857
F-50.31535187811724
s(S'00322'
p5858
I1
tp5859
F-0.20691998325803151
s(S'30003'
p5860
I2
tp5861
F-37.079287760775145
s(S'20210'
p5862
I1
tp5863
F-34.363413821739854
s(S'00111'
p5864
I1
tp5865
F8.576394293385095
s(S'02311'
p5866
I1
tp5867
F6.611181617546337
s(S'31004'
p5868
I1
tp5869
F-36.61592853387363
s(S'11341'
p5870
I2
tp5871
F-5.987064853754814
s(S'02401'
p5872
I1
tp5873
F6.358404754531045
s(S'21124'
p5874
I0
tp5875
F-1.0163027880156354
s(S'42120'
p5876
I2
tp5877
F8.894977174549334
s(S'02001'
p5878
I2
tp5879
F-21.4122151516331
s(S'00503'
p5880
I2
tp5881
F7.131593167019412
s(S'01143'
p5882
I0
tp5883
F9.401376989043063
s(S'00051'
p5884
I2
tp5885
F-52.28555647585549
s(S'40421'
p5886
I1
tp5887
F5.555050210309661
s(S'20120'
p5888
I0
tp5889
F9.909561940299275
s(S'05000'
p5890
I0
tp5891
F-109.99077259075152
s(S'14312'
p5892
I0
tp5893
F5.69903162084978
s(S'00515'
p5894
I1
tp5895
I1
s(S'50020'
p5896
I0
tp5897
F-4.528904395422587
s(S'01222'
p5898
I1
tp5899
F4.5983021503549875
s(S'[0, 2, 1, 1, 0]False'
p5900
I2
tp5901
F-4.524305433157803
s(S'41510'
p5902
I2
tp5903
F5.2980406775341615
s(S'10112'
p5904
I2
tp5905
F4.2999223672708
s(S'10021'
p5906
I2
tp5907
F-71.1050512894576
s(S'11151'
p5908
I0
tp5909
F12.580606170047513
s(S'26010'
p5910
I0
tp5911
F-20.311915469281168
s(S'13111'
p5912
I1
tp5913
F-37.991455383603494
s(S'24210'
p5914
I0
tp5915
F10.797990398393006
s(S'10052'
p5916
I2
tp5917
F-0.684356350623997
s(S'21001'
p5918
I1
tp5919
F-76.59031233325643
s(S'23210'
p5920
I1
tp5921
F-0.3466778321957771
s(S'41021'
p5922
I0
tp5923
F-35.12535009535512
s(S'00412'
p5924
I2
tp5925
F9.197270140808048
s(S'30400'
p5926
I0
tp5927
F-58.18546057894672
s(S'00040'
p5928
I0
tp5929
F-12.652279036391386
s(S'32001'
p5930
I2
tp5931
F-25.617039507382962
s(S'11001'
p5932
I2
tp5933
F-24.99157672087075
s(S'11440'
p5934
I1
tp5935
F6.798241588658343
s(S'62000'
p5936
I2
tp5937
F-117.90477322081364
s(S'01502'
p5938
I1
tp5939
F-1.2740230111676132
s(S'11320'
p5940
I1
tp5941
F-34.370109244490585
s(S'40003'
p5942
I0
tp5943
F-88.00470511052629
s(S'33000'
p5944
I1
tp5945
F-186.7012674091373
s(S'30112'
p5946
I1
tp5947
F-3.1689329037446643
s(S'11015'
p5948
I1
tp5949
F-8.821761302074497
s(S'61001'
p5950
I0
tp5951
F-11.749727211990265
s(S'01211'
p5952
I2
tp5953
F7.906561885400036
s(S'14001'
p5954
I2
tp5955
F-46.16340632224668
s(S'02010'
p5956
I0
tp5957
F-5.75657127349315
s(S'00013'
p5958
I2
tp5959
F-76.88316286875306
s(S'00031'
p5960
I0
tp5961
F-114.78776323083181
s(S'02213'
p5962
I2
tp5963
F1.376583775285552
s(S'30005'
p5964
I0
tp5965
I-200
s(S'32230'
p5966
I1
tp5967
F5.1497648462650805
s(S'02113'
p5968
I1
tp5969
F2.980078480813886
s(S'14202'
p5970
I1
tp5971
F4.175695178842014
s(S'04031'
p5972
I1
tp5973
F1.1600000000000001
s(S'12132'
p5974
I2
tp5975
I-200
s(S'[0, 1, 1, 1, 0]False'
p5976
I0
tp5977
F7.77826247241287
s(S'01202'
p5978
I0
tp5979
F-2.006852282853865
s(S'10210'
p5980
I0
tp5981
F-55.927197971147756
s(S'20141'
p5982
I0
tp5983
F10.177842913119221
s(S'32221'
p5984
I1
tp5985
F-35.38510156127785
s(S'30004'
p5986
I1
tp5987
F-132.18788459124795
s(S'14120'
p5988
I1
tp5989
F5.856487140414531
s(S'42200'
p5990
I1
tp5991
F-38.05499706698469
s(S'23082'
p5992
I2
tp5993
I1
s(S'21430'
p5994
I1
tp5995
F-1.4322161437314058
s(S'30014'
p5996
I0
tp5997
I-200
s(S'22001'
p5998
I0
tp5999
F-37.16908667957733
s(S'10211'
p6000
I0
tp6001
F-14.206319732970755
s(S'14040'
p6002
I0
tp6003
F-20.836063113172663
s(S'21101'
p6004
I1
tp6005
F-57.56845882418032
s(S'00210'
p6006
I0
tp6007
F-53.74660237910642
s(S'51014'
p6008
I1
tp6009
F-2.5384230873953815
s(S'20500'
p6010
I1
tp6011
F5.586505307429676
s(S'40400'
p6012
I1
tp6013
F5.989047909640129
s(S'21600'
p6014
I2
tp6015
F3.0003890629987517
s(S'13013'
p6016
I2
tp6017
F-6.895226710947469
s(S'13031'
p6018
I0
tp6019
I-200
s(S'51004'
p6020
I0
tp6021
F-14.454379625626483
s(S'23510'
p6022
I1
tp6023
I1
s(S'11231'
p6024
I0
tp6025
F9.600427409345231
s(S'21510'
p6026
I2
tp6027
F4.111946721188499
s(S'41201'
p6028
I1
tp6029
F0.7293189255595118
s(S'20112'
p6030
I2
tp6031
F-48.10568954657822
s(S'20102'
p6032
I1
tp6033
F-13.792581599049283
s(S'05101'
p6034
I2
tp6035
F-1.8183383571016192
s(S'14031'
p6036
I2
tp6037
I1
s(S'20202'
p6038
I2
tp6039
F4.975716965337146
s(S'34000'
p6040
I2
tp6041
F-4.049959239210788
s(S'11135'
p6042
I0
tp6043
F2.7832799981903076
s(S'41015'
p6044
I1
tp6045
F-4.067932564079016
s(S'25210'
p6046
I0
tp6047
F12.441247808808306
s(S'00123'
p6048
I1
tp6049
F9.520580535336455
s(S'00151'
p6050
I1
tp6051
F-1.925252861119989
s(S'11404'
p6052
I1
tp6053
F-22.382235260719888
s(S'11204'
p6054
I2
tp6055
F-41.659525754479766
s(S'41030'
p6056
I2
tp6057
F-2.2787966556500088
s(S'30120'
p6058
I2
tp6059
F-0.5747054772114755
s(S'01105'
p6060
I0
tp6061
F-1.7847954914342106
s(S'31300'
p6062
I2
tp6063
F3.7516006257588494
s(S'25100'
p6064
I2
tp6065
F-4.109176216517926
s(S'34428'
p6066
I0
tp6067
F5.0
s(S'52120'
p6068
I1
tp6069
F5.558003601064394
s(S'41047'
p6070
I0
tp6071
I-200
s(S'41320'
p6072
I0
tp6073
I5
s(S'12022'
p6074
I0
tp6075
F-35.106408824925474
s(S'12211'
p6076
I0
tp6077
F-18.69736559880634
s(S'02011'
p6078
I2
tp6079
F-46.76665950026067
s(S'30020'
p6080
I0
tp6081
F-41.03158640381977
s(S'41022'
p6082
I0
tp6083
I5
s(S'13400'
p6084
I2
tp6085
F-10.81378113069265
s(S'10030'
p6086
I1
tp6087
F3.3786676983941324
s(S'00020'
p6088
I2
tp6089
F-67.33493654220858
s(S'04311'
p6090
I0
tp6091
F5.818032341473236
s(S'02220'
p6092
I2
tp6093
F4.195643857978019
s(S'81839'
p6094
I2
tp6095
I1
s(S'50021'
p6096
I0
tp6097
F-2.521798925577631
s(S'11174'
p6098
I2
tp6099
I1
s(S'01205'
p6100
I1
tp6101
F-0.04419440799787144
s(S'10061'
p6102
I2
tp6103
F-0.5759712722415464
s(S'21000'
p6104
I0
tp6105
F-202.11369963994247
s(S'37477'
p6106
I0
tp6107
I5
s(S'32210'
p6108
I1
tp6109
F7.1930112953987795
s(S'10403'
p6110
I0
tp6111
F-2.463765416678604
s(S'20015'
p6112
I2
tp6113
F-55.354821262869216
s(S'13151'
p6114
I1
tp6115
I1
s(S'50014'
p6116
I1
tp6117
F-3.265579050659718
s(S'02050'
p6118
I2
tp6119
F2.769225800028633
s(S'12105'
p6120
I0
tp6121
F5.6554712109263034
s(S'32010'
p6122
I2
tp6123
F-0.32171369387672
s(S'03002'
p6124
I2
tp6125
F-12.710725998873485
s(S'10160'
p6126
I0
tp6127
F8.0476428415772
s(S'40113'
p6128
I0
tp6129
F-2.064658482273557
s(S'11114'
p6130
I2
tp6131
F-31.25464987583125
s(S'21430'
p6132
I2
tp6133
F4.661655045565796
s(S'20020'
p6134
I1
tp6135
F-22.0639817143061
s(S'14010'
p6136
I2
tp6137
F-4.168447328286314
s(S'11520'
p6138
I2
tp6139
F-8.171669598094297
s(S'01301'
p6140
I1
tp6141
F-19.1291187930151
s(S'42000'
p6142
I1
tp6143
F-130.4802347442457
s(S'03113'
p6144
I1
tp6145
F5.349249436139396
s(S'32111'
p6146
I0
tp6147
I5
s(S'10102'
p6148
I2
tp6149
F-19.31103639483594
s(S'31211'
p6150
I1
tp6151
F1.0076509521038197
s(S'22201'
p6152
I0
tp6153
F1.6216913908612458
s(S'21005'
p6154
I0
tp6155
F-11.067905523398796
s(S'30212'
p6156
I2
tp6157
F3.7665121840901694
s(S'10104'
p6158
I2
tp6159
F-13.8281509854562
s(S'03033'
p6160
I2
tp6161
I1
s(S'13301'
p6162
I2
tp6163
F-34.10023171686532
s(S'00311'
p6164
I2
tp6165
F-32.71277989018052
s(S'40200'
p6166
I0
tp6167
F8.628649517820934
s(S'52011'
p6168
I1
tp6169
F-1.5278847382745826
s(S'20003'
p6170
I1
tp6171
F-26.020545651600088
s(S'22210'
p6172
I0
tp6173
F11.226669631827125
s(S'31221'
p6174
I1
tp6175
F4.82734769916113
s(S'01242'
p6176
I0
tp6177
F11.14455319576447
s(S'11211'
p6178
I2
tp6179
F1.3426442945844421
s(S'13041'
p6180
I2
tp6181
F-24.208484853814817
s(S'20400'
p6182
I0
tp6183
F-50.00728356677304
s(S'13003'
p6184
I1
tp6185
F-68.6819873816505
s(S'11124'
p6186
I0
tp6187
F2.6001985041148954
s(S'11011'
p6188
I0
tp6189
F-8.793577249915414
s(S'01004'
p6190
I2
tp6191
F-2.687671418934735
s(S'00110'
p6192
I1
tp6193
F6.253425857464389
s(S'12011'
p6194
I1
tp6195
F-3.1478436938749326
s(S'21010'
p6196
I2
tp6197
F-14.598792460934837
s(S'41310'
p6198
I2
tp6199
F6.639030803944222
s(S'03310'
p6200
I1
tp6201
F7.713360172561752
s(S'12301'
p6202
I1
tp6203
F2.454470703328677
s(S'54200'
p6204
I1
tp6205
I1
s(S'12130'
p6206
I2
tp6207
F-0.6484214866483253
s(S'10113'
p6208
I1
tp6209
F-0.14948428146306236
s(S'60110'
p6210
I0
tp6211
F10.231990154175248
s(S'31015'
p6212
I1
tp6213
F-8.98461974260246
s(S'01044'
p6214
I0
tp6215
F-0.0967963585244922
s(S'52000'
p6216
I0
tp6217
F-100.49415306036839
s(S'00003'
p6218
I0
tp6219
F-196.8346466976749
s(S'01021'
p6220
I0
tp6221
F-2.9219734971164506
s(S'21135'
p6222
I1
tp6223
I1
s(S'30200'
p6224
I2
tp6225
F4.733562859095355
s(S'00413'
p6226
I1
tp6227
F8.525040083537654
s(S'11112'
p6228
I1
tp6229
F0.23097580875036483
s(S'10416'
p6230
I1
tp6231
I1
s(S'30310'
p6232
I0
tp6233
F9.682281013866357
s(S'00214'
p6234
I1
tp6235
F-34.02659338180007
s(S'24011'
p6236
I0
tp6237
F-4.23791335768128
s(S'12004'
p6238
I2
tp6239
F-33.25411405361838
s(S'30300'
p6240
I1
tp6241
F4.477392235689231
s(S'02000'
p6242
I2
tp6243
F-29.661943794152137
s(S'12510'
p6244
I1
tp6245
F2.81414346071798
s(S'31112'
p6246
I2
tp6247
F-13.732479524635135
s(S'12201'
p6248
I0
tp6249
F-56.98846307624169
s(S'41028'
p6250
I2
tp6251
F1.1605632
s(S'40031'
p6252
I2
tp6253
F-2.2270957806705387
s(S'10100'
p6254
I2
tp6255
F5.335046429240586
s(S'11131'
p6256
I1
tp6257
F7.44691200409456
s(S'32121'
p6258
I0
tp6259
I5
s(S'00051'
p6260
I0
tp6261
F-53.64243403364353
s(S'20012'
p6262
I0
tp6263
F-87.55725236775248
s(S'11400'
p6264
I0
tp6265
I-200
s(S'43110'
p6266
I1
tp6267
F6.456839915555264
s(S'01101'
p6268
I1
tp6269
F-15.442513233675168
s(S'10240'
p6270
I0
tp6271
I5
s(S'00113'
p6272
I1
tp6273
F5.103289590775629
s(S'00120'
p6274
I2
tp6275
F-35.12662628589138
s(S'14211'
p6276
I2
tp6277
F-44.9298826112629
s(S'21132'
p6278
I1
tp6279
F-101.89049300145346
s(S'05010'
p6280
I1
tp6281
F-15.98327561861015
s(S'31311'
p6282
I2
tp6283
I-200
s(S'10421'
p6284
I2
tp6285
I1
s(S'21100'
p6286
I2
tp6287
F-24.954984475103842
s(S'04300'
p6288
I0
tp6289
F-2.5247023931113706
s(S'11000'
p6290
I2
tp6291
F-148.84281962289612
s(S'51015'
p6292
I2
tp6293
I1
s(S'30321'
p6294
I2
tp6295
F4.721988151714869
s(S'21330'
p6296
I0
tp6297
F-3.848905914076026
s(S'14020'
p6298
I0
tp6299
F-34.258630529726375
s(S'00524'
p6300
I1
tp6301
F9.161530375040515
s(S'01400'
p6302
I2
tp6303
F5.297530692477655
s(S'14030'
p6304
I1
tp6305
F-26.844872238389673
s(S'01224'
p6306
I1
tp6307
I1
s(S'03010'
p6308
I1
tp6309
F-21.06618793381635
s(S'41014'
p6310
I2
tp6311
F-52.73377167588941
s(S'31201'
p6312
I0
tp6313
F-42.04225066083726
s(S'22010'
p6314
I0
tp6315
F7.387613866281141
s(S'12101'
p6316
I1
tp6317
F-24.09535692806436
s(S'12230'
p6318
I0
tp6319
F5.2624
s(S'10411'
p6320
I0
tp6321
F13.624754382762958
s(S'15110'
p6322
I0
tp6323
F-3.938822607436146
s(S'13113'
p6324
I1
tp6325
F-18.817131979902264
s(S'01150'
p6326
I0
tp6327
F9.20949721777762
s(S'10301'
p6328
I2
tp6329
F-32.19281292060942
s(S'30511'
p6330
I2
tp6331
F-39.2
s(S'32467'
p6332
I0
tp6333
I5
s(S'30500'
p6334
I1
tp6335
F-52.79461379550187
s(S'10121'
p6336
I1
tp6337
F3.842351137506269
s(S'15221'
p6338
I0
tp6339
F-1.5245938190264559
s(S'52100'
p6340
I1
tp6341
F-52.146841402727865
s(S'13122'
p6342
I1
tp6343
F1.4659193521769995
s(S'42001'
p6344
I1
tp6345
F-73.46591195536621
s(S'02101'
p6346
I0
tp6347
F-27.116479967682423
s(S'71100'
p6348
I0
tp6349
F-4.017212245813312
s(S'00114'
p6350
I1
tp6351
F8.714096133230946
s(S'51113'
p6352
I0
tp6353
F-16.259985741894194
s(S'41220'
p6354
I1
tp6355
F3.730922508649135
s(S'10010'
p6356
I1
tp6357
F-57.42977652397802
s(S'05121'
p6358
I1
tp6359
F2.622954520623192
s(S'12222'
p6360
I2
tp6361
F3.195420513831938
s(S'02111'
p6362
I1
tp6363
F-10.350568510782603
s(S'11022'
p6364
I2
tp6365
F-39.306425131562044
s(S'37458'
p6366
I2
tp6367
F1.0
s(S'20131'
p6368
I2
tp6369
F-2.3031743446823967
s(S'31104'
p6370
I1
tp6371
I1
s(S'04030'
p6372
I0
tp6373
F7.5046005281524355
s(S'01200'
p6374
I0
tp6375
F-50.41553771438659
s(S'21041'
p6376
I1
tp6377
F0.7367406890833875
s(S'30006'
p6378
I1
tp6379
F-166.05584684196316
s(S'03200'
p6380
I2
tp6381
F6.064194373102551
s(S'11241'
p6382
I1
tp6383
F-35.07867479298673
s(S'00200'
p6384
I1
tp6385
F-37.056363468329195
s(S'11521'
p6386
I1
tp6387
F1.4802818589962907
s(S'11311'
p6388
I2
tp6389
F-52.661950968079935
s(S'01300'
p6390
I2
tp6391
F-40.53899165318569
s(S'15041'
p6392
I1
tp6393
I-200
s(S'13211'
p6394
I1
tp6395
F4.091977771238874
s(S'53001'
p6396
I0
tp6397
F-69.25314519280603
s(S'51012'
p6398
I1
tp6399
F-0.45836134537437134
s(S'01223'
p6400
I1
tp6401
F3.7927863710456915
s(S'32400'
p6402
I0
tp6403
I-200
s(S'22100'
p6404
I2
tp6405
F-79.8309629278857
s(S'12114'
p6406
I0
tp6407
F1.9661862974539241
s(S'51020'
p6408
I2
tp6409
F-1.8367082127007706
s(S'13102'
p6410
I0
tp6411
F-1.7812623033095307
s(S'21004'
p6412
I2
tp6413
F-55.42845388972745
s(S'10211'
p6414
I1
tp6415
F-35.28604412764201
s(S'41001'
p6416
I2
tp6417
F-116.26935345288717
s(S'20002'
p6418
I2
tp6419
F-140.38290733567788
s(S'11412'
p6420
I0
tp6421
F9.417441812386375
s(S'20031'
p6422
I1
tp6423
F1.1119385982143666
s(S'03013'
p6424
I2
tp6425
F-1.9931814682010782
s(S'41013'
p6426
I1
tp6427
I-200
s(S'01010'
p6428
I2
tp6429
F-17.74151876365211
s(S'03401'
p6430
I0
tp6431
F-0.3346343172349435
s(S'00125'
p6432
I1
tp6433
F7.750302330147116
s(S'00153'
p6434
I1
tp6435
F6.379478631986369
s(S'04101'
p6436
I0
tp6437
F-4.708417409220303
s(S'10200'
p6438
I2
tp6439
F5.289127194241753
s(S'12010'
p6440
I2
tp6441
F3.981706314654114
s(S'[2, 2, 1, 3, 8]False'
p6442
I1
tp6443
F1.64180051382774
s(S'03000'
p6444
I1
tp6445
F-21.244221633235014
s(S'44011'
p6446
I0
tp6447
F-74.80538018204476
s(S'43011'
p6448
I0
tp6449
F-39.77038747640793
s(S'20041'
p6450
I1
tp6451
F0.21646525192022603
s(S'12020'
p6452
I0
tp6453
F-51.1744203512372
s(S'30210'
p6454
I1
tp6455
F-38.40558317238773
s(S'00132'
p6456
I1
tp6457
F8.09128359377848
s(S'32004'
p6458
I1
tp6459
F-1.846128117849699
s(S'01311'
p6460
I0
tp6461
F11.211757505823456
s(S'20016'
p6462
I1
tp6463
F-1.2051515037786875
s(S'42328'
p6464
I2
tp6465
F1.1600000000000001
s(S'30001'
p6466
I1
tp6467
F-79.49200865281577
s(S'30201'
p6468
I1
tp6469
F7.1345092221040565
s(S'21114'
p6470
I0
tp6471
I-200
s(S'71100'
p6472
I2
tp6473
F1.585287358217887
s(S'00016'
p6474
I1
tp6475
F4.922666594034572
s(S'00220'
p6476
I0
tp6477
F-55.30756009466772
s(S'30013'
p6478
I2
tp6479
F-22.52457704647716
s(S'10013'
p6480
I2
tp6481
F-74.38730097166147
s(S'00142'
p6482
I2
tp6483
F4.4924188101800775
s(S'21104'
p6484
I1
tp6485
F-193.95843457888225
s(S'04011'
p6486
I2
tp6487
F-15.11417743132859
s(S'10124'
p6488
I1
tp6489
F5.2848357222366635
s(S'03210'
p6490
I1
tp6491
F4.414225391851
s(S'10311'
p6492
I2
tp6493
F-34.698205364131375
s(S'40115'
p6494
I0
tp6495
F1.6918089179563107
s(S'20122'
p6496
I1
tp6497
F4.863511106555949
s(S'20311'
p6498
I1
tp6499
F-4.9400590725403895
s(S'00513'
p6500
I2
tp6501
F9.298788022529813
s(S'30320'
p6502
I1
tp6503
F2.735539749733479
s(S'13040'
p6504
I1
tp6505
F-38.616669764215864
s(S'00253'
p6506
I2
tp6507
F1.6322333501758086
s(S'00203'
p6508
I2
tp6509
F-34.77851464562844
s(S'53300'
p6510
I2
tp6511
F2.4749002308376
s(S'03140'
p6512
I2
tp6513
F1.1600000000000001
s(S'22014'
p6514
I1
tp6515
F-2.747063867320051
s(S'00441'
p6516
I0
tp6517
F10.413965759491498
s(S'04210'
p6518
I2
tp6519
F-0.8221742524008389
s(S'30211'
p6520
I1
tp6521
F2.4826251784248257
s(S'00321'
p6522
I2
tp6523
F8.084011124058115
s(S'20411'
p6524
I0
tp6525
F10.180095529990343
s(S'10050'
p6526
I1
tp6527
F-58.6366986999998
s(S'21003'
p6528
I0
tp6529
F-76.50625655926868
s(S'14210'
p6530
I1
tp6531
F6.180521257035421
s(S'14411'
p6532
I2
tp6533
I1
s(S'04421'
p6534
I2
tp6535
F1.6487635130453953
s(S'20005'
p6536
I1
tp6537
F-0.16481909230163874
s(S'60201'
p6538
I1
tp6539
F-4.581859189160416
s(S'20032'
p6540
I2
tp6541
F-0.05241582535194089
s(S'01500'
p6542
I0
tp6543
F-44.28732011277005
s(S'12005'
p6544
I2
tp6545
F-1.9474343244352337
s(S'25110'
p6546
I2
tp6547
F2.464086802337808
s(S'03300'
p6548
I0
tp6549
F-0.6838672647861022
s(S'00126'
p6550
I2
tp6551
F-0.520531847132452
s(S'34528'
p6552
I2
tp6553
I1
s(S'00011'
p6554
I1
tp6555
F5.558878288329621
s(S'00516'
p6556
I2
tp6557
F2.142554445456809
s(S'31021'
p6558
I0
tp6559
F-15.282015192214292
s(S'02211'
p6560
I1
tp6561
F-8.140672771976913
s(S'10014'
p6562
I0
tp6563
F-18.051000521093634
s(S'10115'
p6564
I1
tp6565
F-9.737359774245864
s(S'33928'
p6566
I2
tp6567
I1
s(S'01513'
p6568
I2
tp6569
F9.904864927559421
s(S'02014'
p6570
I1
tp6571
F3.1466200831728646
s(S'00131'
p6572
I2
tp6573
F4.461619961511514
s(S'00623'
p6574
I1
tp6575
F3.8542517786582664
s(S'42112'
p6576
I2
tp6577
F1.5137559342739717
s(S'00001'
p6578
I0
tp6579
F-162.75990408807317
s(S'13112'
p6580
I2
tp6581
F0.8573033304528677
s(S'10035'
p6582
I2
tp6583
F-5.830303712351949
s(S'11100'
p6584
I0
tp6585
F-156.3523395360661
s(S'22131'
p6586
I0
tp6587
I5
s(S'42300'
p6588
I1
tp6589
F-38.9998592
s(S'06001'
p6590
I0
tp6591
F-35.84
s(S'10000'
p6592
I0
tp6593
F-182.64738116121458
s(S'15130'
p6594
I0
tp6595
F8.574405020920812
s(S'11112'
p6596
I0
tp6597
F-59.74639588811855
s(S'11431'
p6598
I1
tp6599
F-10.884283392681802
s(S'11110'
p6600
I1
tp6601
F-42.25457962352575
s(S'22003'
p6602
I1
tp6603
I-200
s(S'22005'
p6604
I2
tp6605
F-1.7687309774568019
s(S'11150'
p6606
I2
tp6607
F-38.72295194988503
s(S'13123'
p6608
I2
tp6609
I1
s(S'10500'
p6610
I0
tp6611
F7.50459514686924
s(S'00212'
p6612
I1
tp6613
F-32.35280663913872
s(S'40402'
p6614
I0
tp6615
F11.229855408618914
s(S'53120'
p6616
I1
tp6617
F6.4392373684895485
s(S'11124'
p6618
I1
tp6619
F-3.8600098582174116
s(S'13011'
p6620
I1
tp6621
F-2.2659061532169105
s(S'43001'
p6622
I0
tp6623
F-38.798938418755675
s(S'[1, 2, 1, 0, 0]False'
p6624
I0
tp6625
F-0.482804646858763
s(S'21015'
p6626
I2
tp6627
F-19.22191513263285
s(S'01110'
p6628
I1
tp6629
F5.729909660828337
s(S'70001'
p6630
I1
tp6631
F-20.438623535946835
s(S'40021'
p6632
I0
tp6633
F-45.44438079641696
s(S'00302'
p6634
I0
tp6635
F10.619837104985814
s(S'02110'
p6636
I2
tp6637
F6.664492999485118
s(S'11133'
p6638
I1
tp6639
F-14.781357621503878
s(S'11331'
p6640
I2
tp6641
F-8.475542294809328
s(S'00053'
p6642
I0
tp6643
F-33.61841474687827
s(S'20010'
p6644
I0
tp6645
F-57.135249125296696
s(S'[0, 3, 1, 1, 0]False'
p6646
I1
tp6647
F-0.04798088129801589
s(S'00103'
p6648
I2
tp6649
F3.0315955014898943
s(S'30040'
p6650
I0
tp6651
F8.100520485266756
s(S'30122'
p6652
I1
tp6653
F-1.3691707840437233
s(S'01103'
p6654
I1
tp6655
F-0.5008051731683026
s(S'25000'
p6656
I0
tp6657
F-101.97532425080152
s(S'00005'
p6658
I1
tp6659
I-200
s(S'12500'
p6660
I2
tp6661
F5.303444088682262
s(S'02104'
p6662
I2
tp6663
F3.4368699785875103
s(S'24110'
p6664
I1
tp6665
F-7.598072677464871
s(S'10300'
p6666
I2
tp6667
F-31.9136973345376
s(S'11152'
p6668
I1
tp6669
F3.7948877129116316
s(S'21130'
p6670
I1
tp6671
F-5.047913234430261
s(S'21021'
p6672
I1
tp6673
F-166.1623439049257
s(S'05110'
p6674
I1
tp6675
F-0.5353166637301086
s(S'10216'
p6676
I2
tp6677
F8.771990329406384
s(S'02013'
p6678
I1
tp6679
F2.428086003604964
s(S'21311'
p6680
I1
tp6681
F-38.405428098454145
s(S'30022'
p6682
I1
tp6683
F0.9554445980814573
s(S'01013'
p6684
I0
tp6685
F-0.5208010667355576
s(S'00046'
p6686
I1
tp6687
F2.5694733465505433
s(S'20101'
p6688
I0
tp6689
F-19.081063493788477
s(S'22101'
p6690
I1
tp6691
F-18.669521252242046
s(S'31130'
p6692
I0
tp6693
F-30.870838572661448
s(S'14000'
p6694
I2
tp6695
F-118.02953777903252
s(S'11122'
p6696
I2
tp6697
F-2.299720286366779
s(S'00012'
p6698
I2
tp6699
F-56.657936665135296
s(S'30031'
p6700
I1
tp6701
F1.1132351310303081
s(S'01433'
p6702
I2
tp6703
F7.352453409884352
s(S'61002'
p6704
I2
tp6705
F-1.5985709590537227
s(S'20511'
p6706
I2
tp6707
F2.729399438749061
s(S'50012'
p6708
I0
tp6709
F-70.93989757422057
s(S'20130'
p6710
I2
tp6711
F-0.6600675957928228
s(S'22012'
p6712
I0
tp6713
F-48.28023246206146
s(S'00152'
p6714
I2
tp6715
F4.188345766516249
s(S'10310'
p6716
I2
tp6717
F-0.7323334191440374
s(S'10600'
p6718
I0
tp6719
F8.02113623388761
s(S'40111'
p6720
I1
tp6721
F2.084837055489297
s(S'22020'
p6722
I0
tp6723
F4.152439955908741
s(S'20103'
p6724
I1
tp6725
F-0.9604342291815506
s(S'06100'
p6726
I2
tp6727
F-11.68359393150155
s(S'72100'
p6728
I1
tp6729
I1
s(S'40411'
p6730
I2
tp6731
I-200
s(S'20022'
p6732
I0
tp6733
I-200
s(S'11310'
p6734
I2
tp6735
F-33.93116376358664
s(S'12223'
p6736
I1
tp6737
F1.4438528000000002
s(S'32005'
p6738
I2
tp6739
I1
s(S'03111'
p6740
I0
tp6741
F-14.431186927246955
s(S'40120'
p6742
I1
tp6743
F-0.45321934409347
s(S'12040'
p6744
I0
tp6745
F-68.68757337679115
s(S'02103'
p6746
I0
tp6747
F-32.90899042652879
s(S'10150'
p6748
I1
tp6749
F6.091188614440832
s(S'00112'
p6750
I2
tp6751
F-41.690666716528334
s(S'00116'
p6752
I1
tp6753
F-9.077792921634881
s(S'01232'
p6754
I1
tp6755
F5.693182315308478
s(S'12050'
p6756
I1
tp6757
F1.3841791577262756
s(S'51111'
p6758
I0
tp6759
F-7.4733139697583635
s(S'41311'
p6760
I0
tp6761
F7.272497214146313
s(S'00035'
p6762
I0
tp6763
I-200
s(S'04021'
p6764
I2
tp6765
F-6.304614281823188
s(S'50310'
p6766
I0
tp6767
F11.870174517389422
s(S'10012'
p6768
I1
tp6769
F-24.214779041594593
s(S'10042'
p6770
I1
tp6771
F-43.39119813818853
s(S'21121'
p6772
I2
tp6773
F-89.4642490932726
s(S'21501'
p6774
I1
tp6775
I1
s(S'04310'
p6776
I2
tp6777
F6.7221271123812505
s(S'02410'
p6778
I0
tp6779
F13.421067025388393
s(S'01300'
p6780
I0
tp6781
F-29.058969867205377
s(S'61101'
p6782
I0
tp6783
F-13.517809344472692
s(S'00331'
p6784
I2
tp6785
F9.294565604705236
s(S'30121'
p6786
I2
tp6787
F-0.15688845510330707
s(S'10201'
p6788
I2
tp6789
F-1.1088123394468885
s(S'50110'
p6790
I2
tp6791
F-0.11419244424493602
s(S'12401'
p6792
I0
tp6793
F3.2233990171598497
s(S'00014'
p6794
I1
tp6795
F-6.5750243023706805
s(S'41000'
p6796
I2
tp6797
F-60.66228668640972
s(S'10111'
p6798
I0
tp6799
F-58.499942977526295
s(S'21022'
p6800
I2
tp6801
F-8.50552337109035
s(S'31013'
p6802
I0
tp6803
F-20.334128991277787
s(S'02032'
p6804
I0
tp6805
F7.109471882621587
s(S'02010'
p6806
I2
tp6807
F-18.662452866092323
s(S'11143'
p6808
I0
tp6809
F4.984623555623207
s(S'62100'
p6810
I0
tp6811
F-16.213776621086648
s(S'12411'
p6812
I1
tp6813
F1.6827795659806712
s(S'04211'
p6814
I1
tp6815
F3.2682288895034466
s(S'40301'
p6816
I2
tp6817
F5.988837174468334
s(S'60300'
p6818
I0
tp6819
F8.635772132210219
s(S'13401'
p6820
I2
tp6821
F7.5639761174113405
s(S'42329'
p6822
I2
tp6823
I1
s(S'41021'
p6824
I1
tp6825
F-43.02564759581043
s(S'40013'
p6826
I2
tp6827
F-14.91262189418296
s(S'12112'
p6828
I0
tp6829
F-28.607565176377538
s(S'11104'
p6830
I1
tp6831
F-23.99331913520761
s(S'01401'
p6832
I1
tp6833
F-13.33630850847701
s(S'13100'
p6834
I0
tp6835
F-53.80402661317783
s(S'00411'
p6836
I0
tp6837
F-27.76163599374584
s(S'53310'
p6838
I0
tp6839
F7.751065619651303
s(S'51003'
p6840
I1
tp6841
F-35.651182137551075
s(S'30012'
p6842
I2
tp6843
F-6.461750428437952
s(S'11410'
p6844
I0
tp6845
F12.542432444206023
s(S'15100'
p6846
I0
tp6847
F-41.091439458862574
s(S'41011'
p6848
I1
tp6849
F-45.73270870923223
s(S'03103'
p6850
I2
tp6851
F-1.3150649948746813
s(S'40004'
p6852
I2
tp6853
F-34.10935825627989
s(S'15210'
p6854
I0
tp6855
F11.937822281085213
s(S'11200'
p6856
I2
tp6857
F0.9686960942878436
s(S'31110'
p6858
I1
tp6859
F2.1660081739296495
s(S'31000'
p6860
I0
tp6861
F-216.08375949931505
s(S'10220'
p6862
I0
tp6863
F-60.00069478016918
s(S'21211'
p6864
I1
tp6865
F-9.850215557943233
s(S'01114'
p6866
I2
tp6867
F-0.7669891537464304
s(S'00514'
p6868
I2
tp6869
F6.747404121974161
s(S'13021'
p6870
I1
tp6871
F-4.778977734099006
s(S'02114'
p6872
I1
tp6873
F-0.9376508203523566
s(S'11221'
p6874
I1
tp6875
F-28.69310867106905
s(S'14201'
p6876
I1
tp6877
F-4.572701493697014
s(S'71000'
p6878
I1
tp6879
I-200
s(S'31101'
p6880
I1
tp6881
F-37.93144311503226
s(S'34011'
p6882
I0
tp6883
F-6.591348411594715
s(S'20014'
p6884
I1
tp6885
F0.34090411906278134
s(S'23300'
p6886
I2
tp6887
F-3.1780147306160713
s(S'40500'
p6888
I1
tp6889
F-0.7683209292542351
s(S'14311'
p6890
I0
tp6891
F4.911744140967108
s(S'26100'
p6892
I0
tp6893
F-15.643069810770966
s(S'30003'
p6894
I1
tp6895
F-126.22033673197983
s(S'41005'
p6896
I1
tp6897
F-5.543673871423893
s(S'51020'
p6898
I0
tp6899
I5
s(S'31004'
p6900
I0
tp6901
F-72.2918357276343
s(S'42310'
p6902
I1
tp6903
I1
s(S'41500'
p6904
I2
tp6905
F-1.553151239133121
s(S'40420'
p6906
I1
tp6907
F6.4041342997039115
s(S'21102'
p6908
I1
tp6909
F-231.26456373901522
s(S'26000'
p6910
I2
tp6911
F-17.925889271812277
s(S'02211'
p6912
I2
tp6913
F6.763389871094636
s(S'10126'
p6914
I1
tp6915
F2.5025516047086107
s(S'12310'
p6916
I1
tp6917
F-6.331949944928758
s(S'61828'
p6918
I0
tp6919
I5
s(S'11304'
p6920
I0
tp6921
F-63.027987550491495
s(S'01044'
p6922
I1
tp6923
F-0.43072549198740684
s(S'51001'
p6924
I2
tp6925
F-76.45504007921392
s(S'20120'
p6926
I1
tp6927
F-8.370472440229705
s(S'12030'
p6928
I2
tp6929
F-70.2529090558707
s(S'05000'
p6930
I1
tp6931
F-24.113046582194592
s(S'45111'
p6932
I1
tp6933
F2.264317804319744
s(S'30410'
p6934
I2
tp6935
F8.81455839014513
s(S'11142'
p6936
I2
tp6937
F1.0835227323210084
s(S'21201'
p6938
I1
tp6939
F-9.296242981190092
s(S'50020'
p6940
I1
tp6941
F4.702329116239717
s(S'24010'
p6942
I2
tp6943
F-1.8635294729860035
s(S'13130'
p6944
I1
tp6945
F-1.5093664144827512
s(S'00613'
p6946
I0
tp6947
F8.338381508365943
s(S'11330'
p6948
I1
tp6949
F5.91585781269869
s(S'01305'
p6950
I1
tp6951
I1
s(S'60003'
p6952
I0
tp6953
F-31.45582670863149
s(S'21040'
p6954
I2
tp6955
F-0.3527050524358084
s(S'13060'
p6956
I0
tp6957
I5
s(S'21221'
p6958
I0
tp6959
F-75.9642621882451
s(S'01102'
p6960
I2
tp6961
F-20.027152427589833
s(S'23111'
p6962
I2
tp6963
F-0.7136342536637015
s(S'12031'
p6964
I2
tp6965
F-81.09364001926058
s(S'10052'
p6966
I1
tp6967
F-62.912818539218044
s(S'21001'
p6968
I0
tp6969
F-114.03979474418612
s(S'51310'
p6970
I1
tp6971
F6.212105993483811
s(S'01123'
p6972
I1
tp6973
F2.809827916186499
s(S'21131'
p6974
I2
tp6975
F-8.354785763415425
s(S'32328'
p6976
I0
tp6977
I5
s(S'35000'
p6978
I0
tp6979
F-39.76600893669038
s(S'01310'
p6980
I0
tp6981
F-2.7979371024651307
s(S'30400'
p6982
I1
tp6983
F-37.21184669595234
s(S'32001'
p6984
I1
tp6985
F-11.640376117151062
s(S'22200'
p6986
I0
tp6987
F-68.99148161495403
s(S'61001'
p6988
I1
tp6989
I1
s(S'62000'
p6990
I1
tp6991
F-99.08565448931236
s(S'01502'
p6992
I0
tp6993
F10.650115807230899
s(S'20302'
p6994
I2
tp6995
F3.0140152645062748
s(S'03130'
p6996
I1
tp6997
I1
s(S'00025'
p6998
I0
tp6999
I-200
s(S'30130'
p7000
I1
tp7001
F7.815726094890817
s(S'33000'
p7002
I0
tp7003
F-181.14912513111
s(S'11015'
p7004
I0
tp7005
F-0.277063581555375
s(S'42100'
p7006
I2
tp7007
I-200
s(S'14001'
p7008
I1
tp7009
F-97.71591323634692
s(S'40511'
p7010
I2
tp7011
F1.0
s(S'00013'
p7012
I1
tp7013
F1.99095290890213
s(S'21014'
p7014
I2
tp7015
F-14.163677624750147
s(S'20102'
p7016
I0
tp7017
F-33.302509189934305
s(S'11115'
p7018
I0
tp7019
F0.6439832521055555
s(S'10016'
p7020
I0
tp7021
F-28.441306624399566
s(S'12061'
p7022
I2
tp7023
I1
s(S'04131'
p7024
I2
tp7025
F1.4956102544957002
s(S'11116'
p7026
I2
tp7027
F-4.447204042407498
s(S'15000'
p7028
I1
tp7029
F-123.07557272884482
s(S'04001'
p7030
I0
tp7031
F-81.65348367126086
s(S'12102'
p7032
I2
tp7033
F-54.37508320763028
s(S'01202'
p7034
I1
tp7035
F-17.303737085359774
s(S'00421'
p7036
I0
tp7037
F13.973508313802808
s(S'00031'
p7038
I1
tp7039
F5.479024721965303
s(S'11102'
p7040
I0
tp7041
F-128.90357682267063
s(S'16111'
p7042
I2
tp7043
F2.924024586823707
s(S'42200'
p7044
I0
tp7045
F7.796080309639647
s(S'23110'
p7046
I1
tp7047
F-4.367649953662889
s(S'01302'
p7048
I1
tp7049
F-0.8414088998306073
s(S'22001'
p7050
I1
tp7051
F-7.564806231388543
s(S'21330'
p7052
I1
tp7053
F8.232655575923504
s(S'14040'
p7054
I1
tp7055
F2.7919784403762598
s(S'21101'
p7056
I2
tp7057
F-70.07959828255572
s(S'12141'
p7058
I1
tp7059
F1.2620320655203994
s(S'31121'
p7060
I2
tp7061
F-2.3074621654967116
s(S'00210'
p7062
I1
tp7063
F6.3322743575953355
s(S'51014'
p7064
I2
tp7065
F-12.954838645669103
s(S'51100'
p7066
I2
tp7067
F-40.45070783999959
s(S'40400'
p7068
I0
tp7069
I-200
s(S'13013'
p7070
I1
tp7071
F-30.125657225285188
s(S'01405'
p7072
I0
tp7073
I5
s(S'42528'
p7074
I2
tp7075
I1
s(S'10341'
p7076
I2
tp7077
F3.3957343476413637
s(S'30041'
p7078
I0
tp7079
F-13.6828278643034
s(S'01205'
p7080
I2
tp7081
F5.31420003466686
s(S'41201'
p7082
I0
tp7083
I-200
s(S'20501'
p7084
I1
tp7085
F3.9275339296061924
s(S'01151'
p7086
I0
tp7087
F11.65759954631289
s(S'20000'
p7088
I1
tp7089
F-104.1873279179095
s(S'61110'
p7090
I2
tp7091
F6.280067668436906
s(S'21500'
p7092
I2
tp7093
F-8.186623767107093
s(S'41015'
p7094
I2
tp7095
F-7.68976261900684
s(S'42021'
p7096
I0
tp7097
F4.611799913008713
s(S'11404'
p7098
I0
tp7099
F-112.80365476780882
s(S'11204'
p7100
I1
tp7101
F-2.952772393958809
s(S'35200'
p7102
I1
tp7103
I1
s(S'11140'
p7104
I0
tp7105
F12.37081396215814
s(S'01105'
p7106
I1
tp7107
F2.2816045231319375
s(S'12012'
p7108
I1
tp7109
F-17.911266262333733
s(S'62210'
p7110
I1
tp7111
F-1.7569937637203417
s(S'25100'
p7112
I1
tp7113
F-18.01493025989499
s(S'30140'
p7114
I1
tp7115
F6.446760542077832
s(S'64000'
p7116
I2
tp7117
F-17.235724979257128
s(S'22120'
p7118
I2
tp7119
F-0.014972054530902668
s(S'30510'
p7120
I2
tp7121
F8.635530227200965
s(S'31302'
p7122
I0
tp7123
F-34.201274804161756
s(S'12211'
p7124
I1
tp7125
F-15.113194335598152
s(S'02203'
p7126
I0
tp7127
F-13.858633479865789
s(S'15020'
p7128
I0
tp7129
F8.680042425014259
s(S'30020'
p7130
I1
tp7131
F4.2694329347121345
s(S'01011'
p7132
I0
tp7133
F-55.107971694041105
s(S'51011'
p7134
I2
tp7135
F-13.44978778324259
s(S'21081'
p7136
I1
tp7137
I1
s(S'20103'
p7138
I0
tp7139
F-14.182449064794952
s(S'01322'
p7140
I2
tp7141
F6.835877448171803
s(S'10132'
p7142
I2
tp7143
F3.149456413201184
s(S'42101'
p7144
I2
tp7145
F-10.813931731828376
s(S'[0, 4, 1, 1, 0]False'
p7146
I2
tp7147
F9.225515159210891
s(S'41122'
p7148
I2
tp7149
F1.1679926118226194
s(S'44011'
p7150
I2
tp7151
F-55.197706553659316
s(S'21120'
p7152
I2
tp7153
F-34.83708102797597
s(S'50015'
p7154
I0
tp7155
F-1.4489465845123093
s(S'50014'
p7156
I0
tp7157
F-17.655028204779796
s(S'02005'
p7158
I0
tp7159
F-39.24889305726683
s(S'70000'
p7160
I1
tp7161
F-122.38276816089007
s(S'14112'
p7162
I2
tp7163
F0.8848070461469196
s(S'00400'
p7164
I2
tp7165
F7.886188828962704
s(S'05011'
p7166
I0
tp7167
F-3.406623780836815
s(S'40113'
p7168
I1
tp7169
F4.318731182263234
s(S'13014'
p7170
I1
tp7171
F-3.59176724093387
s(S'21210'
p7172
I2
tp7173
F-35.68658905861429
s(S'01115'
p7174
I1
tp7175
F-0.15439514097476348
s(S'50111'
p7176
I2
tp7177
F-3.237012947789042
s(S'00033'
p7178
I1
tp7179
F-34.71396103779196
s(S'20020'
p7180
I0
tp7181
F-42.33609791308618
s(S'20005'
p7182
I2
tp7183
F-94.25877857393819
s(S'01301'
p7184
I2
tp7185
F2.572374597925287
s(S'00054'
p7186
I2
tp7187
F-38.48227215635194
s(S'42000'
p7188
I0
tp7189
F-135.6194220558949
s(S'52021'
p7190
I1
tp7191
I1
s(S'32528'
p7192
I0
tp7193
F6.465690112
s(S'00323'
p7194
I1
tp7195
F8.697854089766961
s(S'31120'
p7196
I2
tp7197
F-4.208944579760481
s(S'51021'
p7198
I2
tp7199
F-0.5534119377047527
s(S'17044'
p7200
I2
tp7201
I1
s(S'40005'
p7202
I1
tp7203
F-9.599868832370547
s(S'23112'
p7204
I2
tp7205
F2.1429378667532664
s(S'02400'
p7206
I1
tp7207
F6.167794459697888
s(S'10040'
p7208
I1
tp7209
F-4.290117917268729
s(S'20003'
p7210
I2
tp7211
F-148.49624481881014
s(S'01412'
p7212
I2
tp7213
F8.941385372843964
s(S'11005'
p7214
I0
tp7215
F-88.3259635996564
s(S'01030'
p7216
I0
tp7217
F-0.8942704697506816
s(S'00611'
p7218
I0
tp7219
F10.357838028996236
s(S'03102'
p7220
I2
tp7221
F-8.908931844485554
s(S'00504'
p7222
I0
tp7223
F11.892850014156197
s(S'01204'
p7224
I0
tp7225
F-18.462710580507157
s(S'13004'
p7226
I0
tp7227
F-8.676776257650102
s(S'12011'
p7228
I2
tp7229
F-103.30915829906144
s(S'10040'
p7230
I0
tp7231
F-49.928228814100635
s(S'40412'
p7232
I1
tp7233
F5.048028498590923
s(S'12301'
p7234
I2
tp7235
F-46.575729679141595
s(S'00204'
p7236
I1
tp7237
F-71.46673675042072
s(S'10113'
p7238
I0
tp7239
F-7.892745303057023
s(S'11315'
p7240
I2
tp7241
F4.474581881616926
s(S'31015'
p7242
I0
tp7243
F-38.54178354476112
s(S'40015'
p7244
I2
tp7245
F-50.698299816835785
s(S'52000'
p7246
I1
tp7247
F-88.15917481479144
s(S'40300'
p7248
I0
tp7249
F6.232228492783293
s(S'00003'
p7250
I1
tp7251
F-90.85379242172422
s(S'61000'
p7252
I0
tp7253
F-117.07817757427439
s(S'02041'
p7254
I0
tp7255
I-200
s(S'50003'
p7256
I2
tp7257
F-114.08480809713163
s(S'12110'
p7258
I0
tp7259
F-37.668946550256905
s(S'31115'
p7260
I0
tp7261
I5
s(S'20211'
p7262
I1
tp7263
F4.287804669803
s(S'10002'
p7264
I1
tp7265
F-13.928841414487577
s(S'00043'
p7266
I2
tp7267
F1.1215822124073358
s(S'20006'
p7268
I2
tp7269
F-152.7460454673322
s(S'14110'
p7270
I0
tp7271
F-8.469978291015183
s(S'30310'
p7272
I1
tp7273
F-0.1875358159410796
s(S'01030'
p7274
I1
tp7275
F5.545948826937571
s(S'51121'
p7276
I2
tp7277
F2.142044062180995
s(S'00214'
p7278
I2
tp7279
F-37.339353134165734
s(S'11321'
p7280
I1
tp7281
F-85.15222653198147
s(S'30300'
p7282
I0
tp7283
F-30.921578159952624
s(S'15212'
p7284
I0
tp7285
I5
s(S'16101'
p7286
I1
tp7287
F-3.912522893849527
s(S'20021'
p7288
I0
tp7289
F-74.73964839775374
s(S'15321'
p7290
I0
tp7291
F7.3472006230901
s(S'31112'
p7292
I1
tp7293
F-8.71145828105
s(S'51000'
p7294
I2
tp7295
F-93.95659903639132
s(S'10204'
p7296
I2
tp7297
F4.430539358206256
s(S'12014'
p7298
I2
tp7299
F-21.20308061700838
s(S'04120'
p7300
I0
tp7301
F9.53516518120126
s(S'00032'
p7302
I2
tp7303
F-88.60469286359755
s(S'05122'
p7304
I1
tp7305
F1.252530972263527
s(S'41300'
p7306
I2
tp7307
F-57.81282317111325
s(S'00300'
p7308
I1
tp7309
F-2.4453528823165644
s(S'02112'
p7310
I1
tp7311
F-7.33141375594883
s(S'02011'
p7312
I1
tp7313
F-5.581031220814755
s(S'11041'
p7314
I0
tp7315
F10.76717815821469
s(S'20012'
p7316
I1
tp7317
F-43.70148520497927
s(S'61500'
p7318
I2
tp7319
F-7.230959294385258
s(S'00320'
p7320
I2
tp7321
F8.456326807248171
s(S'25002'
p7322
I1
tp7323
F-5.48926403956158
s(S'30005'
p7324
I1
tp7325
F-141.7277087021949
s(S'33100'
p7326
I2
tp7327
F2.245373130723056
s(S'00113'
p7328
I2
tp7329
F-35.68189340752843
s(S'21110'
p7330
I0
tp7331
F-29.68788777271447
s(S'12320'
p7332
I2
tp7333
I1
s(S'01440'
p7334
I2
tp7335
F8.084537711424389
s(S'11203'
p7336
I1
tp7337
F-14.755098403319518
s(S'20500'
p7338
I0
tp7339
F-33.33878605208652
s(S'22000'
p7340
I2
tp7341
F-165.73275524427564
s(S'23101'
p7342
I0
tp7343
F-1.1136364005329735
s(S'14041'
p7344
I2
tp7345
I-200
s(S'21100'
p7346
I1
tp7347
F-17.18698589998327
s(S'04300'
p7348
I1
tp7349
F-3.1988913785417514
s(S'00211'
p7350
I2
tp7351
F-34.71621643799662
s(S'10120'
p7352
I1
tp7353
F5.7381397435368795
s(S'34110'
p7354
I1
tp7355
F6.9800039613569975
s(S'11302'
p7356
I0
tp7357
F-87.0710833062931
s(S'40311'
p7358
I0
tp7359
F8.742731868550905
s(S'22138'
p7360
I1
tp7361
F1.8459573174141564
s(S'14020'
p7362
I1
tp7363
F3.567767299306473
s(S'41004'
p7364
I0
tp7365
I-200
s(S'14030'
p7366
I0
tp7367
F4.40097990046022
s(S'40003'
p7368
I2
tp7369
F-81.60643245177495
s(S'05210'
p7370
I2
tp7371
F8.29853418681045
s(S'03010'
p7372
I0
tp7373
F-13.200071135634072
s(S'41014'
p7374
I1
tp7375
F-15.365856027661101
s(S'31201'
p7376
I1
tp7377
F1.1688850837928217
s(S'60100'
p7378
I1
tp7379
F-4.863559178296646
s(S'22010'
p7380
I1
tp7381
F-1.9135589871325704
s(S'00150'
p7382
I1
tp7383
F-1.2042588675165886
s(S'20220'
p7384
I2
tp7385
F4.7303290686771176
s(S'01141'
p7386
I2
tp7387
F5.68142457929368
s(S'13113'
p7388
I2
tp7389
F-37.204483886938
s(S'41114'
p7390
I1
tp7391
F1.1990462299862288
s(S'40212'
p7392
I1
tp7393
F5.299944650035197
s(S'61200'
p7394
I2
tp7395
F-8.10591156271334
s(S'04102'
p7396
I2
tp7397
F6.793267694245656
s(S'20212'
p7398
I2
tp7399
F-6.783565554636549
s(S'00161'
p7400
I2
tp7401
F6.606937835942624
s(S'52310'
p7402
I1
tp7403
F3.5711608369300754
ssS'epsilon'
p7404
F0.049937396626556566
sS'actions'
p7405
(lp7406
I0
aI1
aI2
asS'gamma'
p7407
F0.8
sS'alpha'
p7408
F0.2
sb.