(iqlearn
QLearn
p0
(dp1
S'q'
p2
(dp3
(S'12107'
p4
I1
tp5
I1
s(S'42328'
p6
I2
tp7
F1.1600000000000001
s(S'14000'
p8
I2
tp9
I-200
s(S'41170'
p10
I1
tp11
I1
s(S'22729'
p12
I0
tp13
I5
s(S'60273'
p14
I1
tp15
I1
s(S'91529'
p16
I2
tp17
I1
s(S'91508'
p18
I2
tp19
F1.0
s(S'12408'
p20
I0
tp21
I5
s(S'41130'
p22
I2
tp23
I1
s(S'16004'
p24
I1
tp25
F1.1280000000000001
s(S'101608'
p26
I2
tp27
I1
s(S'131011'
p28
I1
tp29
I1
s(S'92836'
p30
I1
tp31
I1
s(S'21718'
p32
I0
tp33
I5
s(S'16008'
p34
I1
tp35
I1
s(S'91608'
p36
I0
tp37
I5
s(S'33728'
p38
I1
tp39
F1.0
s(S'27158'
p40
I1
tp41
I1
s(S'21274'
p42
I2
tp43
I1
s(S'22138'
p44
I2
tp45
F1.1280000000000001
s(S'81828'
p46
I1
tp47
I1
s(S'21473'
p48
I1
tp49
I1
s(S'11600'
p50
I1
tp51
F1.1280000000000001
s(S'91518'
p52
I2
tp53
F1.0
s(S'16009'
p54
I2
tp55
I1
s(S'57282'
p56
I2
tp57
I1
s(S'[2, 2, 1, 3, 8]False'
p58
I2
tp59
I1
s(S'41120'
p60
I2
tp61
I1
s(S'21728'
p62
I2
tp63
I1
s(S'22158'
p64
I1
tp65
I1
s(S'41129'
p66
I1
tp67
I1
s(S'20282'
p68
I2
tp69
F1.0
s(S'41263'
p70
I1
tp71
I1
s(S'42129'
p72
I1
tp73
F1.0
s(S'41140'
p74
I1
tp75
I1
s(S'47282'
p76
I1
tp77
I1
s(S'16005'
p78
I2
tp79
F1.0
s(S'61707'
p80
I2
tp81
I1
s(S'11500'
p82
I1
tp83
F1.0
s(S'22454'
p84
I2
tp85
I1
s(S'33228'
p86
I2
tp87
I1
s(S'61310'
p88
I1
tp89
I1
s(S'31608'
p90
I1
tp91
I1
s(S'41210'
p92
I0
tp93
F5.0
s(S'51316'
p94
I2
tp95
I1
s(S'11510'
p96
I0
tp97
I5
s(S'31708'
p98
I2
tp99
I1
s(S'91828'
p100
I1
tp101
F1.1280000000000001
s(S'12173'
p102
I0
tp103
I5
s(S'16000'
p104
I2
tp105
F1.0
s(S'91818'
p106
I1
tp107
I1
s(S'15009'
p108
I2
tp109
I1
s(S'15004'
p110
I2
tp111
I1
s(S'150011'
p112
I1
tp113
F1.1600000000000001
s(S'40120'
p114
I1
tp115
I1
s(S'90373'
p116
I0
tp117
I5
s(S'61428'
p118
I2
tp119
I1
s(S'49382'
p120
I0
tp121
I5
s(S'51310'
p122
I2
tp123
I1
s(S'81939'
p124
I1
tp125
I1
s(S'512511'
p126
I2
tp127
F1.0
s(S'31150'
p128
I1
tp129
I1
ssS'epsilon'
p130
F0.8987400000000001
sS'actions'
p131
(lp132
I0
aI1
aI2
asS'gamma'
p133
F0.8
sS'alpha'
p134
F0.2
sb.