(iqlearn
QLearn
p0
(dp1
S'q'
p2
(dp3
(S'38002'
p4
I2
tp5
F1.25088
s(S'34000'
p6
I1
tp7
I-200
s(S'38012'
p8
I2
tp9
I1
s(S'24182'
p10
I0
tp11
I5
s(S'24172'
p12
I1
tp13
I1
s(S'24272'
p14
I2
tp15
I1
s(S'26122'
p16
I1
tp17
I1
s(S'22138'
p18
I2
tp19
F1.08192
s(S'28112'
p20
I1
tp21
I1
s(S'28193'
p22
I2
tp23
I1
s(S'22158'
p24
I1
tp25
I1
s(S'28003'
p26
I0
tp27
F5.0
s(S'28194'
p28
I2
tp29
I1
s(S'23003'
p30
I0
tp31
I5
s(S'27102'
p32
I0
tp33
I5
s(S'28042'
p34
I2
tp35
I1
s(S'24000'
p36
I2
tp37
F1.0
s(S'27196'
p38
I0
tp39
I5
s(S'[2, 2, 1, 3, 8]False'
p40
I1
tp41
I1
s(S'23052'
p42
I0
tp43
I5
s(S'21103'
p44
I0
tp45
I5
s(S'26138'
p46
I2
tp47
I1
s(S'26162'
p48
I0
tp49
I5
ssS'epsilon'
p50
F0.8987400000000001
sS'actions'
p51
(lp52
I0
aI1
aI2
asS'gamma'
p53
F0.8
sS'alpha'
p54
F0.2
sb.