(iqlearn
QLearn
p0
(dp1
S'q'
p2
(dp3
(S'33838'
p4
I0
tp5
F5.0
s(S'27138'
p6
I2
tp7
I1
s(S'34438'
p8
I0
tp9
I5
s(S'37452'
p10
I0
tp11
I-200
s(S'22138'
p12
I0
tp13
F5.0
s(S'[2, 2, 1, 3, 8]False'
p14
I1
tp15
I1
s(S'26138'
p16
I0
tp17
I5
s(S'33438'
p18
I2
tp19
I1
s(S'41538'
p20
I2
tp21
I1
s(S'41557'
p22
I2
tp23
I1
s(S'41838'
p24
I0
tp25
I5
s(S'35138'
p26
I1
tp27
I1
s(S'37722'
p28
I1
tp29
I1
s(S'41548'
p30
I2
tp31
I1
s(S'32848'
p32
I2
tp33
I1
ssS'epsilon'
p34
F0.8987400000000001
sS'actions'
p35
(lp36
I0
aI1
aI2
asS'gamma'
p37
F0.8
sS'alpha'
p38
F0.2
sb.